EXPORTS 
	?$TSS0@?1??curl_easy_init_mutex_@CurlHolder@cpr@@CAAAVmutex@std@@XZ@4HA 	 DATA
	??_R0?AV?$StringHolder@VUrl@cpr@@@cpr@@@8 	 DATA
	??_R0?AV?$_Associated_state@VResponse@cpr@@@std@@@8 	 DATA
	??_R0?AV?$_Func_base@VResponse@cpr@@$$V@std@@@8 	 DATA
	??_R0?AV?$_Func_base@X$$V@std@@@8 	 DATA
	??_R0?AV?$_Iosb@H@std@@@8 	 DATA
	??_R0?AV?$_Packaged_state@$$A6A?AVResponse@cpr@@XZ@std@@@8 	 DATA
	??_R0?AV?$_Ref_count@UCurlHolder@cpr@@@std@@@8 	 DATA
	??_R0?AV?$_Ref_count@Vthread@std@@@std@@@8 	 DATA
	??_R0?AV?$_Ref_count_obj2@V?$packaged_task@$$A6A?AVResponse@cpr@@XZ@std@@@std@@@8 	 DATA
	??_R0?AV?$basic_ios@DU?$char_traits@D@std@@@std@@@8 	 DATA
	??_R0?AV?$basic_iostream@DU?$char_traits@D@std@@@std@@@8 	 DATA
	??_R0?AV?$basic_istream@DU?$char_traits@D@std@@@std@@@8 	 DATA
	??_R0?AV?$basic_istringstream@DU?$char_traits@D@std@@V?$allocator@D@2@@std@@@8 	 DATA
	??_R0?AV?$basic_ostream@DU?$char_traits@D@std@@@std@@@8 	 DATA
	??_R0?AV?$basic_streambuf@DU?$char_traits@D@std@@@std@@@8 	 DATA
	??_R0?AV?$basic_stringbuf@DU?$char_traits@D@std@@V?$allocator@D@2@@std@@@8 	 DATA
	??_R0?AV?$basic_stringstream@DU?$char_traits@D@std@@V?$allocator@D@2@@std@@@8 	 DATA
	??_R0?AVBearer@cpr@@@8 	 DATA
	??_R0?AVEncodedAuthentication@cpr@@@8 	 DATA
	??_R0?AVGlobalThreadPool@cpr@@@8 	 DATA
	??_R0?AVThreadPool@cpr@@@8 	 DATA
	??_R0?AVUrl@cpr@@@8 	 DATA
	??_R0?AV_Future_error_category2@std@@@8 	 DATA
	??_R0?AV_Ref_count_base@std@@@8 	 DATA
	??_R0?AVbad_alloc@std@@@8 	 DATA
	??_R0?AVbad_array_new_length@std@@@8 	 DATA
	??_R0?AVbad_cast@std@@@8 	 DATA
	??_R0?AVbad_weak_ptr@std@@@8 	 DATA
	??_R0?AVerror_category@std@@@8 	 DATA
	??_R0?AVexception@std@@@8 	 DATA
	??_R0?AVfuture_error@std@@@8 	 DATA
	??_R0?AVinvalid_argument@std@@@8 	 DATA
	??_R0?AVios_base@std@@@8 	 DATA
	??_R0?AVlogic_error@std@@@8 	 DATA
	??_R0?AVoverflow_error@std@@@8 	 DATA
	??_R0?AVruntime_error@std@@@8 	 DATA
	??_R0?AVunderflow_error@std@@@8 	 DATA
	?_Psave@?$_Facetptr@V?$time_put@DV?$ostreambuf_iterator@DU?$char_traits@D@std@@@std@@@std@@@std@@2PBVfacet@locale@2@B 	 DATA
	?_Static@?1???$_Immortalize_memcpy_image@V_Future_error_category2@std@@@std@@YAABV_Future_error_category2@1@XZ@4U?$_Constexpr_immortalize_impl@V_Future_error_category2@std@@@1@A 	 DATA
	?curl_easy_init_mutex_@?1??0CurlHolder@cpr@@CAAAVmutex@std@@XZ@4V34@A 	 DATA
	?s_mutex@GlobalThreadPool@cpr@@0Vmutex@std@@A 	 DATA
	?s_pInstance@GlobalThreadPool@cpr@@0PAV12@A 	 DATA
	??$?0$$QAV?$basic_string@DU?$char_traits@D@std@@V?$allocator@D@2@@std@@$$Z$$V@?$pair@$$CBV?$basic_string@DU?$char_traits@D@std@@V?$allocator@D@2@@std@@V12@@std@@QAE@Upiecewise_construct_t@1@V?$tuple@$$QAV?$basic_string@DU?$char_traits@D@std@@V?$allocator@D@2@@std@@@1@V?$tuple@$$V@1@@Z
	??$?0$$V@?$_Compressed_pair@V?$allocator@D@std@@V?$_String_val@U?$_Simple_types@D@std@@@2@$00@std@@QAE@U_Zero_then_variadic_args_t@1@@Z
	??$?0$$V@?$_Compressed_pair@V?$allocator@U?$_List_node@UThreadData@ThreadPool@cpr@@PAX@std@@@std@@V?$_List_val@U?$_List_simple_types@UThreadData@ThreadPool@cpr@@@std@@@2@$00@std@@QAE@U_Zero_then_variadic_args_t@1@@Z
	??$?0$$V@?$_Compressed_pair@V?$allocator@U?$_Tree_node@U?$pair@$$CBV?$basic_string@DU?$char_traits@D@std@@V?$allocator@D@2@@std@@V12@@std@@PAX@std@@@std@@V?$_Tree_val@U?$_Tree_simple_types@U?$pair@$$CBV?$basic_string@DU?$char_traits@D@std@@V?$allocator@D@2@@std@@V12@@std@@@std@@@2@$00@std@@QAE@U_Zero_then_variadic_args_t@1@@Z
	??$?0$$V@?$_Compressed_pair@V?$allocator@U?$_Tree_node@U?$pair@$$CBV?$basic_string@DU?$char_traits@D@std@@V?$allocator@D@2@@std@@VEncodedAuthentication@cpr@@@std@@PAX@std@@@std@@V?$_Tree_val@U?$_Tree_simple_types@U?$pair@$$CBV?$basic_string@DU?$char_traits@D@std@@V?$allocator@D@2@@std@@VEncodedAuthentication@cpr@@@std@@@std@@@2@$00@std@@QAE@U_Zero_then_variadic_args_t@1@@Z
	??$?0$$V@?$_Compressed_pair@V?$allocator@U?$_Tree_node@U?$pair@$$CBW4AcceptEncodingMethods@cpr@@V?$basic_string@DU?$char_traits@D@std@@V?$allocator@D@2@@std@@@std@@PAX@std@@@std@@V?$_Tree_val@U?$_Tree_simple_types@U?$pair@$$CBW4AcceptEncodingMethods@cpr@@V?$basic_string@DU?$char_traits@D@std@@V?$allocator@D@2@@std@@@std@@@std@@@2@$00@std@@QAE@U_Zero_then_variadic_args_t@1@@Z
	??$?0$$V@?$_Compressed_pair@V?$allocator@UParameter@cpr@@@std@@V?$_Vector_val@U?$_Simple_types@UParameter@cpr@@@std@@@2@$00@std@@QAE@U_Zero_then_variadic_args_t@1@@Z
	??$?0$$V@?$_Compressed_pair@V?$allocator@Ucurl_forms@@@std@@V?$_Vector_val@U?$_Simple_types@Ucurl_forms@@@std@@@2@$00@std@@QAE@U_Zero_then_variadic_args_t@1@@Z
	??$?0$$V@?$_Compressed_pair@V?$allocator@V?$basic_string@DU?$char_traits@D@std@@V?$allocator@D@2@@std@@@std@@V?$_Vector_val@U?$_Simple_types@V?$basic_string@DU?$char_traits@D@std@@V?$allocator@D@2@@std@@@std@@@2@$00@std@@QAE@U_Zero_then_variadic_args_t@1@@Z
	??$?0$$V@?$_Compressed_pair@V?$allocator@V?$function@$$A6AXXZ@std@@@std@@V?$_Deque_val@U?$_Deque_simple_types@V?$function@$$A6AXXZ@std@@@std@@@2@$00@std@@QAE@U_Zero_then_variadic_args_t@1@@Z
	??$?0$$V@?$_Compressed_pair@V?$allocator@V?$shared_ptr@VInterceptor@cpr@@@std@@@std@@V?$_Deque_val@U?$_Deque_simple_types@V?$shared_ptr@VInterceptor@cpr@@@std@@@std@@@2@$00@std@@QAE@U_Zero_then_variadic_args_t@1@@Z
	??$?0$$V@?$_Compressed_pair@V?$allocator@VCertInfo@cpr@@@std@@V?$_Vector_val@U?$_Simple_types@VCertInfo@cpr@@@std@@@2@$00@std@@QAE@U_Zero_then_variadic_args_t@1@@Z
	??$?0$$V@?$_Compressed_pair@V?$allocator@VCookie@cpr@@@std@@V?$_Vector_val@U?$_Simple_types@VCookie@cpr@@@std@@@2@$00@std@@QAE@U_Zero_then_variadic_args_t@1@@Z
	??$?0AAPAV_Facet_base@std@@@?$_Compressed_pair@U?$default_delete@V_Facet_base@std@@@std@@PAV_Facet_base@2@$00@std@@QAE@U_Zero_then_variadic_args_t@1@AAPAV_Facet_base@1@@Z
	??$?0AAUThreadData@ThreadPool@cpr@@@?$_List_node_emplace_op2@V?$allocator@U?$_List_node@UThreadData@ThreadPool@cpr@@PAX@std@@@std@@@std@@QAE@AAV?$allocator@U?$_List_node@UThreadData@ThreadPool@cpr@@PAX@std@@@1@AAUThreadData@ThreadPool@cpr@@@Z
	??$?0AAV?$allocator@D@std@@$$V@?$_Compressed_pair@V?$allocator@D@std@@V?$_String_val@U?$_Simple_types@D@std@@@2@$00@std@@QAE@U_One_then_variadic_args_t@1@AAV?$allocator@D@1@@Z
	??$?0ABQAU?$_Tree_node@U?$pair@$$CBV?$basic_string@DU?$char_traits@D@std@@V?$allocator@D@2@@std@@V12@@std@@PAX@std@@_N$0A@@?$pair@PAU?$_Tree_node@U?$pair@$$CBV?$basic_string@DU?$char_traits@D@std@@V?$allocator@D@2@@std@@V12@@std@@PAX@std@@_N@std@@QAE@ABQAU?$_Tree_node@U?$pair@$$CBV?$basic_string@DU?$char_traits@D@std@@V?$allocator@D@2@@std@@V12@@std@@PAX@1@$$QA_N@Z
	??$?0ABQAU?$_Tree_node@U?$pair@$$CBV?$basic_string@DU?$char_traits@D@std@@V?$allocator@D@2@@std@@VEncodedAuthentication@cpr@@@std@@PAX@std@@_N$0A@@?$pair@PAU?$_Tree_node@U?$pair@$$CBV?$basic_string@DU?$char_traits@D@std@@V?$allocator@D@2@@std@@VEncodedAuthentication@cpr@@@std@@PAX@std@@_N@std@@QAE@ABQAU?$_Tree_node@U?$pair@$$CBV?$basic_string@DU?$char_traits@D@std@@V?$allocator@D@2@@std@@VEncodedAuthentication@cpr@@@std@@PAX@1@$$QA_N@Z
	??$?0ABU?$less@V?$basic_string@DU?$char_traits@D@std@@V?$allocator@D@2@@std@@@std@@U_Zero_then_variadic_args_t@1@@?$_Compressed_pair@U?$less@V?$basic_string@DU?$char_traits@D@std@@V?$allocator@D@2@@std@@@std@@V?$_Compressed_pair@V?$allocator@U?$_Tree_node@U?$pair@$$CBV?$basic_string@DU?$char_traits@D@std@@V?$allocator@D@2@@std@@V12@@std@@PAX@std@@@std@@V?$_Tree_val@U?$_Tree_simple_types@U?$pair@$$CBV?$basic_string@DU?$char_traits@D@std@@V?$allocator@D@2@@std@@V12@@std@@@std@@@2@$00@2@$00@std@@QAE@U_One_then_variadic_args_t@1@ABU?$less@V?$basic_string@DU?$char_traits@D@std@@V?$allocator@D@2@@std@@@1@$$QAU_Zero_then_variadic_args_t@1@@Z
	??$?0ABU?$less@V?$basic_string@DU?$char_traits@D@std@@V?$allocator@D@2@@std@@@std@@U_Zero_then_variadic_args_t@1@@?$_Compressed_pair@U?$less@V?$basic_string@DU?$char_traits@D@std@@V?$allocator@D@2@@std@@@std@@V?$_Compressed_pair@V?$allocator@U?$_Tree_node@U?$pair@$$CBV?$basic_string@DU?$char_traits@D@std@@V?$allocator@D@2@@std@@VEncodedAuthentication@cpr@@@std@@PAX@std@@@std@@V?$_Tree_val@U?$_Tree_simple_types@U?$pair@$$CBV?$basic_string@DU?$char_traits@D@std@@V?$allocator@D@2@@std@@VEncodedAuthentication@cpr@@@std@@@std@@@2@$00@2@$00@std@@QAE@U_One_then_variadic_args_t@1@ABU?$less@V?$basic_string@DU?$char_traits@D@std@@V?$allocator@D@2@@std@@@1@$$QAU_Zero_then_variadic_args_t@1@@Z
	??$?0ABU?$less@W4AcceptEncodingMethods@cpr@@@std@@U_Zero_then_variadic_args_t@1@@?$_Compressed_pair@U?$less@W4AcceptEncodingMethods@cpr@@@std@@V?$_Compressed_pair@V?$allocator@U?$_Tree_node@U?$pair@$$CBW4AcceptEncodingMethods@cpr@@V?$basic_string@DU?$char_traits@D@std@@V?$allocator@D@2@@std@@@std@@PAX@std@@@std@@V?$_Tree_val@U?$_Tree_simple_types@U?$pair@$$CBW4AcceptEncodingMethods@cpr@@V?$basic_string@DU?$char_traits@D@std@@V?$allocator@D@2@@std@@@std@@@std@@@2@$00@2@$00@std@@QAE@U_One_then_variadic_args_t@1@ABU?$less@W4AcceptEncodingMethods@cpr@@@1@$$QAU_Zero_then_variadic_args_t@1@@Z
	??$?0ABU?$pair@$$CBV?$basic_string@DU?$char_traits@D@std@@V?$allocator@D@2@@std@@V12@@std@@@?$_Tree_temp_node@V?$allocator@U?$_Tree_node@U?$pair@$$CBV?$basic_string@DU?$char_traits@D@std@@V?$allocator@D@2@@std@@V12@@std@@PAX@std@@@std@@@std@@QAE@AAV?$allocator@U?$_Tree_node@U?$pair@$$CBV?$basic_string@DU?$char_traits@D@std@@V?$allocator@D@2@@std@@V12@@std@@PAX@std@@@1@PAU?$_Tree_node@U?$pair@$$CBV?$basic_string@DU?$char_traits@D@std@@V?$allocator@D@2@@std@@V12@@std@@PAX@1@ABU?$pair@$$CBV?$basic_string@DU?$char_traits@D@std@@V?$allocator@D@2@@std@@V12@@1@@Z
	??$?0ABU?$pair@$$CBW4AcceptEncodingMethods@cpr@@V?$basic_string@DU?$char_traits@D@std@@V?$allocator@D@2@@std@@@std@@@?$_Tree_temp_node@V?$allocator@U?$_Tree_node@U?$pair@$$CBW4AcceptEncodingMethods@cpr@@V?$basic_string@DU?$char_traits@D@std@@V?$allocator@D@2@@std@@@std@@PAX@std@@@std@@@std@@QAE@AAV?$allocator@U?$_Tree_node@U?$pair@$$CBW4AcceptEncodingMethods@cpr@@V?$basic_string@DU?$char_traits@D@std@@V?$allocator@D@2@@std@@@std@@PAX@std@@@1@PAU?$_Tree_node@U?$pair@$$CBW4AcceptEncodingMethods@cpr@@V?$basic_string@DU?$char_traits@D@std@@V?$allocator@D@2@@std@@@std@@PAX@1@ABU?$pair@$$CBW4AcceptEncodingMethods@cpr@@V?$basic_string@DU?$char_traits@D@std@@V?$allocator@D@2@@std@@@1@@Z
	??$?0ABUCaseInsensitiveCompare@cpr@@U_Zero_then_variadic_args_t@std@@@?$_Compressed_pair@UCaseInsensitiveCompare@cpr@@V?$_Compressed_pair@V?$allocator@U?$_Tree_node@U?$pair@$$CBV?$basic_string@DU?$char_traits@D@std@@V?$allocator@D@2@@std@@V12@@std@@PAX@std@@@std@@V?$_Tree_val@U?$_Tree_simple_types@U?$pair@$$CBV?$basic_string@DU?$char_traits@D@std@@V?$allocator@D@2@@std@@V12@@std@@@std@@@2@$00@std@@$00@std@@QAE@U_One_then_variadic_args_t@1@ABUCaseInsensitiveCompare@cpr@@$$QAU_Zero_then_variadic_args_t@1@@Z
	??$?0ABUpiecewise_construct_t@std@@V?$tuple@$$QAV?$basic_string@DU?$char_traits@D@std@@V?$allocator@D@2@@std@@@1@V?$tuple@$$V@1@@?$_Tree_temp_node@V?$allocator@U?$_Tree_node@U?$pair@$$CBV?$basic_string@DU?$char_traits@D@std@@V?$allocator@D@2@@std@@V12@@std@@PAX@std@@@std@@@std@@QAE@AAV?$allocator@U?$_Tree_node@U?$pair@$$CBV?$basic_string@DU?$char_traits@D@std@@V?$allocator@D@2@@std@@V12@@std@@PAX@std@@@1@PAU?$_Tree_node@U?$pair@$$CBV?$basic_string@DU?$char_traits@D@std@@V?$allocator@D@2@@std@@V12@@std@@PAX@1@ABUpiecewise_construct_t@1@$$QAV?$tuple@$$QAV?$basic_string@DU?$char_traits@D@std@@V?$allocator@D@2@@std@@@1@$$QAV?$tuple@$$V@1@@Z
	??$?0ABUpiecewise_construct_t@std@@V?$tuple@ABV?$basic_string@DU?$char_traits@D@std@@V?$allocator@D@2@@std@@@1@V?$tuple@$$V@1@@?$_Tree_temp_node@V?$allocator@U?$_Tree_node@U?$pair@$$CBV?$basic_string@DU?$char_traits@D@std@@V?$allocator@D@2@@std@@V12@@std@@PAX@std@@@std@@@std@@QAE@AAV?$allocator@U?$_Tree_node@U?$pair@$$CBV?$basic_string@DU?$char_traits@D@std@@V?$allocator@D@2@@std@@V12@@std@@PAX@std@@@1@PAU?$_Tree_node@U?$pair@$$CBV?$basic_string@DU?$char_traits@D@std@@V?$allocator@D@2@@std@@V12@@std@@PAX@1@ABUpiecewise_construct_t@1@$$QAV?$tuple@ABV?$basic_string@DU?$char_traits@D@std@@V?$allocator@D@2@@std@@@1@$$QAV?$tuple@$$V@1@@Z
	??$?0ABUpiecewise_construct_t@std@@V?$tuple@ABV?$basic_string@DU?$char_traits@D@std@@V?$allocator@D@2@@std@@@1@V?$tuple@$$V@1@@?$_Tree_temp_node@V?$allocator@U?$_Tree_node@U?$pair@$$CBV?$basic_string@DU?$char_traits@D@std@@V?$allocator@D@2@@std@@VEncodedAuthentication@cpr@@@std@@PAX@std@@@std@@@std@@QAE@AAV?$allocator@U?$_Tree_node@U?$pair@$$CBV?$basic_string@DU?$char_traits@D@std@@V?$allocator@D@2@@std@@VEncodedAuthentication@cpr@@@std@@PAX@std@@@1@PAU?$_Tree_node@U?$pair@$$CBV?$basic_string@DU?$char_traits@D@std@@V?$allocator@D@2@@std@@VEncodedAuthentication@cpr@@@std@@PAX@1@ABUpiecewise_construct_t@1@$$QAV?$tuple@ABV?$basic_string@DU?$char_traits@D@std@@V?$allocator@D@2@@std@@@1@$$QAV?$tuple@$$V@1@@Z
	??$?0ABV?$allocator@D@std@@$$V@?$_Compressed_pair@V?$allocator@D@std@@V?$_String_val@U?$_Simple_types@D@std@@@2@$00@std@@QAE@U_One_then_variadic_args_t@1@ABV?$allocator@D@1@@Z
	??$?0ABV?$allocator@UPair@cpr@@@std@@$$V@?$_Compressed_pair@V?$allocator@UPair@cpr@@@std@@V?$_Vector_val@U?$_Simple_types@UPair@cpr@@@std@@@2@$00@std@@QAE@U_One_then_variadic_args_t@1@ABV?$allocator@UPair@cpr@@@1@@Z
	??$?0ABV?$allocator@UParameter@cpr@@@std@@$$V@?$_Compressed_pair@V?$allocator@UParameter@cpr@@@std@@V?$_Vector_val@U?$_Simple_types@UParameter@cpr@@@std@@@2@$00@std@@QAE@U_One_then_variadic_args_t@1@ABV?$allocator@UParameter@cpr@@@1@@Z
	??$?0ABV?$allocator@UPart@cpr@@@std@@$$V@?$_Compressed_pair@V?$allocator@UPart@cpr@@@std@@V?$_Vector_val@U?$_Simple_types@UPart@cpr@@@std@@@2@$00@std@@QAE@U_One_then_variadic_args_t@1@ABV?$allocator@UPart@cpr@@@1@@Z
	??$?0ABV?$allocator@V?$basic_string@DU?$char_traits@D@std@@V?$allocator@D@2@@std@@@std@@$$V@?$_Compressed_pair@V?$allocator@V?$basic_string@DU?$char_traits@D@std@@V?$allocator@D@2@@std@@@std@@V?$_Vector_val@U?$_Simple_types@V?$basic_string@DU?$char_traits@D@std@@V?$allocator@D@2@@std@@@std@@@2@$00@std@@QAE@U_One_then_variadic_args_t@1@ABV?$allocator@V?$basic_string@DU?$char_traits@D@std@@V?$allocator@D@2@@std@@@1@@Z
	??$?0ABV?$basic_string@DU?$char_traits@D@std@@V?$allocator@D@2@@std@@$$Z$$V@?$pair@$$CBV?$basic_string@DU?$char_traits@D@std@@V?$allocator@D@2@@std@@V12@@std@@QAE@Upiecewise_construct_t@1@V?$tuple@ABV?$basic_string@DU?$char_traits@D@std@@V?$allocator@D@2@@std@@@1@V?$tuple@$$V@1@@Z
	??$?0ABV?$basic_string@DU?$char_traits@D@std@@V?$allocator@D@2@@std@@$$Z$$V@?$pair@$$CBV?$basic_string@DU?$char_traits@D@std@@V?$allocator@D@2@@std@@VEncodedAuthentication@cpr@@@std@@QAE@Upiecewise_construct_t@1@V?$tuple@ABV?$basic_string@DU?$char_traits@D@std@@V?$allocator@D@2@@std@@@1@V?$tuple@$$V@1@@Z
	??$?0ABV?$basic_string@DU?$char_traits@D@std@@V?$allocator@D@2@@std@@$0A@@?$tuple@ABV?$basic_string@DU?$char_traits@D@std@@V?$allocator@D@2@@std@@@std@@QAE@ABV?$basic_string@DU?$char_traits@D@std@@V?$allocator@D@2@@1@@Z
	??$?0ABV?$basic_string@DU?$char_traits@D@std@@V?$allocator@D@2@@std@@@?$_Tuple_val@ABV?$basic_string@DU?$char_traits@D@std@@V?$allocator@D@2@@std@@@std@@QAE@ABV?$basic_string@DU?$char_traits@D@std@@V?$allocator@D@2@@1@@Z
	??$?0D@?$allocator@U_Container_proxy@std@@@std@@QAE@ABV?$allocator@D@1@@Z
	??$?0N$0A@@?$duration@NU?$ratio@$00$0DLJKMKAA@@std@@@chrono@std@@QAE@ABN@Z
	??$?0NU?$ratio@$00$00@std@@$0A@@?$duration@NU?$ratio@$00$0DLJKMKAA@@std@@@chrono@std@@QAE@ABV?$duration@NU?$ratio@$00$00@std@@@12@@Z
	??$?0PAD$0A@@?$basic_string@DU?$char_traits@D@std@@V?$allocator@D@2@@std@@QAE@PAD0ABV?$allocator@D@1@@Z
	??$?0PAU?$_Tree_node@U?$pair@$$CBV?$basic_string@DU?$char_traits@D@std@@V?$allocator@D@2@@std@@V12@@std@@PAX@std@@_N$0A@@?$pair@PAU?$_Tree_node@U?$pair@$$CBV?$basic_string@DU?$char_traits@D@std@@V?$allocator@D@2@@std@@V12@@std@@PAX@std@@_N@std@@QAE@$$QAPAU?$_Tree_node@U?$pair@$$CBV?$basic_string@DU?$char_traits@D@std@@V?$allocator@D@2@@std@@V12@@std@@PAX@1@$$QA_N@Z
	??$?0PAU?$_Tree_node@U?$pair@$$CBV?$basic_string@DU?$char_traits@D@std@@V?$allocator@D@2@@std@@VEncodedAuthentication@cpr@@@std@@PAX@std@@_N$0A@@?$pair@PAU?$_Tree_node@U?$pair@$$CBV?$basic_string@DU?$char_traits@D@std@@V?$allocator@D@2@@std@@VEncodedAuthentication@cpr@@@std@@PAX@std@@_N@std@@QAE@$$QAPAU?$_Tree_node@U?$pair@$$CBV?$basic_string@DU?$char_traits@D@std@@V?$allocator@D@2@@std@@VEncodedAuthentication@cpr@@@std@@PAX@1@$$QA_N@Z
	??$?0U?$_List_node@UThreadData@ThreadPool@cpr@@PAX@std@@@?$allocator@U_Container_proxy@std@@@std@@QAE@ABV?$allocator@U?$_List_node@UThreadData@ThreadPool@cpr@@PAX@std@@@1@@Z
	??$?0U?$_Tree_node@U?$pair@$$CBV?$basic_string@DU?$char_traits@D@std@@V?$allocator@D@2@@std@@V12@@std@@PAX@std@@@?$allocator@U_Container_proxy@std@@@std@@QAE@ABV?$allocator@U?$_Tree_node@U?$pair@$$CBV?$basic_string@DU?$char_traits@D@std@@V?$allocator@D@2@@std@@V12@@std@@PAX@std@@@1@@Z
	??$?0U?$_Tree_node@U?$pair@$$CBV?$basic_string@DU?$char_traits@D@std@@V?$allocator@D@2@@std@@VEncodedAuthentication@cpr@@@std@@PAX@std@@@?$allocator@U_Container_proxy@std@@@std@@QAE@ABV?$allocator@U?$_Tree_node@U?$pair@$$CBV?$basic_string@DU?$char_traits@D@std@@V?$allocator@D@2@@std@@VEncodedAuthentication@cpr@@@std@@PAX@std@@@1@@Z
	??$?0U?$_Tree_node@U?$pair@$$CBW4AcceptEncodingMethods@cpr@@V?$basic_string@DU?$char_traits@D@std@@V?$allocator@D@2@@std@@@std@@PAX@std@@@?$allocator@U_Container_proxy@std@@@std@@QAE@ABV?$allocator@U?$_Tree_node@U?$pair@$$CBW4AcceptEncodingMethods@cpr@@V?$basic_string@DU?$char_traits@D@std@@V?$allocator@D@2@@std@@@std@@PAX@std@@@1@@Z
	??$?0U?$default_delete@V_Facet_base@std@@@std@@$0A@@?$unique_ptr@V_Facet_base@std@@U?$default_delete@V_Facet_base@std@@@2@@std@@QAE@PAV_Facet_base@1@@Z
	??$?0UCaseInsensitiveCompare@cpr@@U_One_then_variadic_args_t@std@@V?$allocator@U?$_Tree_node@U?$pair@$$CBV?$basic_string@DU?$char_traits@D@std@@V?$allocator@D@2@@std@@V12@@std@@PAX@std@@@3@@?$_Compressed_pair@UCaseInsensitiveCompare@cpr@@V?$_Compressed_pair@V?$allocator@U?$_Tree_node@U?$pair@$$CBV?$basic_string@DU?$char_traits@D@std@@V?$allocator@D@2@@std@@V12@@std@@PAX@std@@@std@@V?$_Tree_val@U?$_Tree_simple_types@U?$pair@$$CBV?$basic_string@DU?$char_traits@D@std@@V?$allocator@D@2@@std@@V12@@std@@@std@@@2@$00@std@@$00@std@@QAE@U_One_then_variadic_args_t@1@$$QAUCaseInsensitiveCompare@cpr@@$$QAU21@$$QAV?$allocator@U?$_Tree_node@U?$pair@$$CBV?$basic_string@DU?$char_traits@D@std@@V?$allocator@D@2@@std@@V12@@std@@PAX@std@@@1@@Z
	??$?0UCurlHolder@cpr@@$0A@@?$shared_ptr@UCurlHolder@cpr@@@std@@QAE@PAUCurlHolder@cpr@@@Z
	??$?0UPair@cpr@@@?$allocator@U_Container_proxy@std@@@std@@QAE@ABV?$allocator@UPair@cpr@@@1@@Z
	??$?0UParameter@cpr@@@?$allocator@U_Container_proxy@std@@@std@@QAE@ABV?$allocator@UParameter@cpr@@@1@@Z
	??$?0UPart@cpr@@@?$allocator@U_Container_proxy@std@@@std@@QAE@ABV?$allocator@UPart@cpr@@@1@@Z
	??$?0U_Exact_args_t@std@@$0A@@?$tuple@$$V@std@@QAE@U_Exact_args_t@1@@Z
	??$?0U_Exact_args_t@std@@ABV?$basic_string@DU?$char_traits@D@std@@V?$allocator@D@2@@1@$$V$0A@@?$tuple@ABV?$basic_string@DU?$char_traits@D@std@@V?$allocator@D@2@@std@@@std@@QAE@U_Exact_args_t@1@ABV?$basic_string@DU?$char_traits@D@std@@V?$allocator@D@2@@1@@Z
	??$?0U_Exact_args_t@std@@V?$basic_string@DU?$char_traits@D@std@@V?$allocator@D@2@@1@$$V$0A@@?$tuple@$$QAV?$basic_string@DU?$char_traits@D@std@@V?$allocator@D@2@@std@@@std@@QAE@U_Exact_args_t@1@$$QAV?$basic_string@DU?$char_traits@D@std@@V?$allocator@D@2@@1@@Z
	??$?0Ucurl_forms@@@?$allocator@U_Container_proxy@std@@@std@@QAE@ABV?$allocator@Ucurl_forms@@@1@@Z
	??$?0V?$allocator@D@std@@$$V@?$_Compressed_pair@V?$allocator@D@std@@V?$_String_val@U?$_Simple_types@D@std@@@2@$00@std@@QAE@U_One_then_variadic_args_t@1@$$QAV?$allocator@D@1@@Z
	??$?0V?$allocator@U?$_Tree_node@U?$pair@$$CBV?$basic_string@DU?$char_traits@D@std@@V?$allocator@D@2@@std@@V12@@std@@PAX@std@@@std@@$$V@?$_Compressed_pair@V?$allocator@U?$_Tree_node@U?$pair@$$CBV?$basic_string@DU?$char_traits@D@std@@V?$allocator@D@2@@std@@V12@@std@@PAX@std@@@std@@V?$_Tree_val@U?$_Tree_simple_types@U?$pair@$$CBV?$basic_string@DU?$char_traits@D@std@@V?$allocator@D@2@@std@@V12@@std@@@std@@@2@$00@std@@QAE@U_One_then_variadic_args_t@1@$$QAV?$allocator@U?$_Tree_node@U?$pair@$$CBV?$basic_string@DU?$char_traits@D@std@@V?$allocator@D@2@@std@@V12@@std@@PAX@std@@@1@@Z
	??$?0V?$allocator@V?$basic_string@DU?$char_traits@D@std@@V?$allocator@D@2@@std@@@std@@$$V@?$_Compressed_pair@V?$allocator@V?$basic_string@DU?$char_traits@D@std@@V?$allocator@D@2@@std@@@std@@V?$_Vector_val@U?$_Simple_types@V?$basic_string@DU?$char_traits@D@std@@V?$allocator@D@2@@std@@@std@@@2@$00@std@@QAE@U_One_then_variadic_args_t@1@$$QAV?$allocator@V?$basic_string@DU?$char_traits@D@std@@V?$allocator@D@2@@std@@@1@@Z
	??$?0V?$allocator@V?$basic_string@DU?$char_traits@D@std@@V?$allocator@D@2@@std@@@std@@PAV?$basic_string@DU?$char_traits@D@std@@V?$allocator@D@2@@1@PAV21@PAV21@@?$_Compressed_pair@V?$allocator@V?$basic_string@DU?$char_traits@D@std@@V?$allocator@D@2@@std@@@std@@V?$_Vector_val@U?$_Simple_types@V?$basic_string@DU?$char_traits@D@std@@V?$allocator@D@2@@std@@@std@@@2@$00@std@@QAE@U_One_then_variadic_args_t@1@$$QAV?$allocator@V?$basic_string@DU?$char_traits@D@std@@V?$allocator@D@2@@std@@@1@$$QAPAV?$basic_string@DU?$char_traits@D@std@@V?$allocator@D@2@@1@22@Z
	??$?0V?$allocator@VCertInfo@cpr@@@std@@PAVCertInfo@cpr@@PAV23@PAV23@@?$_Compressed_pair@V?$allocator@VCertInfo@cpr@@@std@@V?$_Vector_val@U?$_Simple_types@VCertInfo@cpr@@@std@@@2@$00@std@@QAE@U_One_then_variadic_args_t@1@$$QAV?$allocator@VCertInfo@cpr@@@1@$$QAPAVCertInfo@cpr@@22@Z
	??$?0V?$allocator@VCookie@cpr@@@std@@PAVCookie@cpr@@PAV23@PAV23@@?$_Compressed_pair@V?$allocator@VCookie@cpr@@@std@@V?$_Vector_val@U?$_Simple_types@VCookie@cpr@@@std@@@2@$00@std@@QAE@U_One_then_variadic_args_t@1@$$QAV?$allocator@VCookie@cpr@@@1@$$QAPAVCookie@cpr@@22@Z
	??$?0V?$basic_string@DU?$char_traits@D@std@@V?$allocator@D@2@@std@@$$V$0A@@?$tuple@$$QAV?$basic_string@DU?$char_traits@D@std@@V?$allocator@D@2@@std@@@std@@QAE@$$QAV?$basic_string@DU?$char_traits@D@std@@V?$allocator@D@2@@1@@Z
	??$?0V?$basic_string@DU?$char_traits@D@std@@V?$allocator@D@2@@std@@@?$_Tuple_val@$$QAV?$basic_string@DU?$char_traits@D@std@@V?$allocator@D@2@@std@@@std@@QAE@$$QAV?$basic_string@DU?$char_traits@D@std@@V?$allocator@D@2@@1@@Z
	??$?0V?$basic_string@DU?$char_traits@D@std@@V?$allocator@D@2@@std@@@?$allocator@U_Container_proxy@std@@@std@@QAE@ABV?$allocator@V?$basic_string@DU?$char_traits@D@std@@V?$allocator@D@2@@std@@@1@@Z
	??$?0V?$function@$$A6AXXZ@std@@@?$allocator@PAV?$function@$$A6AXXZ@std@@@std@@QAE@ABV?$allocator@V?$function@$$A6AXXZ@std@@@1@@Z
	??$?0V?$function@$$A6AXXZ@std@@@?$allocator@U_Container_proxy@std@@@std@@QAE@ABV?$allocator@V?$function@$$A6AXXZ@std@@@1@@Z
	??$?0V?$shared_ptr@VInterceptor@cpr@@@std@@@?$allocator@PAV?$shared_ptr@VInterceptor@cpr@@@std@@@std@@QAE@ABV?$allocator@V?$shared_ptr@VInterceptor@cpr@@@std@@@1@@Z
	??$?0V?$shared_ptr@VInterceptor@cpr@@@std@@@?$allocator@U_Container_proxy@std@@@std@@QAE@ABV?$allocator@V?$shared_ptr@VInterceptor@cpr@@@std@@@1@@Z
	??$?0V?$tuple@$$QAV?$basic_string@DU?$char_traits@D@std@@V?$allocator@D@2@@std@@@std@@V?$tuple@$$V@1@$0A@$$Z$S@?$pair@$$CBV?$basic_string@DU?$char_traits@D@std@@V?$allocator@D@2@@std@@V12@@std@@QAE@AAV?$tuple@$$QAV?$basic_string@DU?$char_traits@D@std@@V?$allocator@D@2@@std@@@1@AAV?$tuple@$$V@1@U?$integer_sequence@I$0A@@1@U?$integer_sequence@I$S@1@@Z
	??$?0V?$tuple@ABV?$basic_string@DU?$char_traits@D@std@@V?$allocator@D@2@@std@@@std@@V?$tuple@$$V@1@$0A@$$Z$S@?$pair@$$CBV?$basic_string@DU?$char_traits@D@std@@V?$allocator@D@2@@std@@V12@@std@@QAE@AAV?$tuple@ABV?$basic_string@DU?$char_traits@D@std@@V?$allocator@D@2@@std@@@1@AAV?$tuple@$$V@1@U?$integer_sequence@I$0A@@1@U?$integer_sequence@I$S@1@@Z
	??$?0V?$tuple@ABV?$basic_string@DU?$char_traits@D@std@@V?$allocator@D@2@@std@@@std@@V?$tuple@$$V@1@$0A@$$Z$S@?$pair@$$CBV?$basic_string@DU?$char_traits@D@std@@V?$allocator@D@2@@std@@VEncodedAuthentication@cpr@@@std@@QAE@AAV?$tuple@ABV?$basic_string@DU?$char_traits@D@std@@V?$allocator@D@2@@std@@@1@AAV?$tuple@$$V@1@U?$integer_sequence@I$0A@@1@U?$integer_sequence@I$S@1@@Z
	??$?0VCertInfo@cpr@@@?$allocator@U_Container_proxy@std@@@std@@QAE@ABV?$allocator@VCertInfo@cpr@@@1@@Z
	??$?0VCookie@cpr@@@?$allocator@U_Container_proxy@std@@@std@@QAE@ABV?$allocator@VCookie@cpr@@@1@@Z
	??$?0VSession@cpr@@$0A@@?$shared_ptr@VSession@cpr@@@std@@QAE@ABV?$weak_ptr@VSession@cpr@@@1@@Z
	??$?0Vthread@std@@$0A@@?$shared_ptr@Vthread@std@@@std@@QAE@PAVthread@1@@Z
	??$?0W4AcceptEncodingMethods@cpr@@AAY04$$CBD$0A@@?$pair@$$CBW4AcceptEncodingMethods@cpr@@V?$basic_string@DU?$char_traits@D@std@@V?$allocator@D@2@@std@@@std@@QAE@$$QAW4AcceptEncodingMethods@cpr@@AAY04$$CBD@Z
	??$?0W4AcceptEncodingMethods@cpr@@AAY07$$CBD$0A@@?$pair@$$CBW4AcceptEncodingMethods@cpr@@V?$basic_string@DU?$char_traits@D@std@@V?$allocator@D@2@@std@@@std@@QAE@$$QAW4AcceptEncodingMethods@cpr@@AAY07$$CBD@Z
	??$?0W4AcceptEncodingMethods@cpr@@AAY08$$CBD$0A@@?$pair@$$CBW4AcceptEncodingMethods@cpr@@V?$basic_string@DU?$char_traits@D@std@@V?$allocator@D@2@@std@@@std@@QAE@$$QAW4AcceptEncodingMethods@cpr@@AAY08$$CBD@Z
	??$?0_J$0A@@?$duration@_JU?$ratio@$00$00@std@@@chrono@std@@QAE@AB_J@Z
	??$?0_J$0A@@?$duration@_JU?$ratio@$00$0DLJKMKAA@@std@@@chrono@std@@QAE@AB_J@Z
	??$?0_J$0A@@?$duration@_JU?$ratio@$00$0JIJGIA@@std@@@chrono@std@@QAE@AB_J@Z
	??$?0_JU?$ratio@$00$00@std@@$0A@@?$duration@_JU?$ratio@$00$0DLJKMKAA@@std@@@chrono@std@@QAE@ABV?$duration@_JU?$ratio@$00$00@std@@@12@@Z
	??$?0_JU?$ratio@$00$00@std@@$0A@@?$duration@_JU?$ratio@$00$0JIJGIA@@std@@@chrono@std@@QAE@ABV?$duration@_JU?$ratio@$00$00@std@@@12@@Z
	??$?0_JU?$ratio@$00$0DLJKMKAA@@std@@$0A@@?$duration@NU?$ratio@$00$0DLJKMKAA@@std@@@chrono@std@@QAE@ABV?$duration@_JU?$ratio@$00$0DLJKMKAA@@std@@@12@@Z
	??$?0_JU?$ratio@$00$0DOI@@std@@$0A@@?$duration@_JU?$ratio@$00$0DLJKMKAA@@std@@@chrono@std@@QAE@ABV?$duration@_JU?$ratio@$00$0DOI@@std@@@12@@Z
	??$?0_JU?$ratio@$00$0JIJGIA@@std@@$0A@@?$duration@_JU?$ratio@$00$0DLJKMKAA@@std@@@chrono@std@@QAE@ABV?$duration@_JU?$ratio@$00$0JIJGIA@@std@@@12@@Z
	??$?6DU?$char_traits@D@std@@D@std@@YAAAV?$basic_ostream@DU?$char_traits@D@std@@@0@AAV10@ABU?$_Timeobj@DPBUtm@@@0@@Z
	??$?6DU?$char_traits@D@std@@V?$allocator@D@1@@std@@YAAAV?$basic_ostream@DU?$char_traits@D@std@@@0@AAV10@ABV?$basic_string@DU?$char_traits@D@std@@V?$allocator@D@2@@0@@Z
	??$?6U?$char_traits@D@std@@@std@@YAAAV?$basic_ostream@DU?$char_traits@D@std@@@0@AAV10@PBD@Z
	??$?8DU?$char_traits@D@std@@V?$allocator@D@1@@std@@YA_NABV?$basic_string@DU?$char_traits@D@std@@V?$allocator@D@2@@0@QBD@Z
	??$?CUCurlHolder@cpr@@$0A@@?$shared_ptr@UCurlHolder@cpr@@@std@@QBEPAUCurlHolder@cpr@@XZ
	??$?CV?$packaged_task@$$A6A?AVResponse@cpr@@XZ@std@@$0A@@?$shared_ptr@V?$packaged_task@$$A6A?AVResponse@cpr@@XZ@std@@@std@@QBEPAV?$packaged_task@$$A6A?AVResponse@cpr@@XZ@1@XZ
	??$?CVInterceptor@cpr@@$0A@@?$shared_ptr@VInterceptor@cpr@@@std@@QBEPAVInterceptor@cpr@@XZ
	??$?CVSession@cpr@@$0A@@?$shared_ptr@VSession@cpr@@@std@@QBEPAVSession@cpr@@XZ
	??$?CVthread@std@@$0A@@?$shared_ptr@Vthread@std@@@std@@QBEPAVthread@1@XZ
	??$?DUCurlHolder@cpr@@$0A@@?$shared_ptr@UCurlHolder@cpr@@@std@@QBEAAUCurlHolder@cpr@@XZ
	??$?DV?$packaged_task@$$A6A?AVResponse@cpr@@XZ@std@@$0A@@?$shared_ptr@V?$packaged_task@$$A6A?AVResponse@cpr@@XZ@std@@@std@@QBEAAV?$packaged_task@$$A6A?AVResponse@cpr@@XZ@1@XZ
	??$?GUsteady_clock@chrono@std@@V?$duration@_JU?$ratio@$00$0DLJKMKAA@@std@@@12@V312@@chrono@std@@YA?AV?$duration@_JU?$ratio@$00$0DLJKMKAA@@std@@@01@ABV?$time_point@Usteady_clock@chrono@std@@V?$duration@_JU?$ratio@$00$0DLJKMKAA@@std@@@23@@01@0@Z
	??$?GUsteady_clock@chrono@std@@V?$duration@_JU?$ratio@$00$0DLJKMKAA@@std@@@12@_JU?$ratio@$00$0DOI@@2@@chrono@std@@YA?AV?$time_point@Usteady_clock@chrono@std@@V?$duration@_JU?$ratio@$00$0DLJKMKAA@@std@@@23@@01@ABV201@ABV?$duration@_JU?$ratio@$00$0DOI@@std@@@01@@Z
	??$?G_JU?$ratio@$00$0DLJKMKAA@@std@@_JU01@@chrono@std@@YA?AV?$duration@_JU?$ratio@$00$0DLJKMKAA@@std@@@01@ABV201@0@Z
	??$?G_JU?$ratio@$00$0DLJKMKAA@@std@@_JU?$ratio@$00$0DOI@@1@@chrono@std@@YA?AV?$duration@_JU?$ratio@$00$0DLJKMKAA@@std@@@01@ABV201@ABV?$duration@_JU?$ratio@$00$0DOI@@std@@@01@@Z
	??$?HDU?$char_traits@D@std@@V?$allocator@D@1@@std@@YA?AV?$basic_string@DU?$char_traits@D@std@@V?$allocator@D@2@@0@$$QAV10@0@Z
	??$?HDU?$char_traits@D@std@@V?$allocator@D@1@@std@@YA?AV?$basic_string@DU?$char_traits@D@std@@V?$allocator@D@2@@0@$$QAV10@ABV10@@Z
	??$?HDU?$char_traits@D@std@@V?$allocator@D@1@@std@@YA?AV?$basic_string@DU?$char_traits@D@std@@V?$allocator@D@2@@0@$$QAV10@QBD@Z
	??$?HDU?$char_traits@D@std@@V?$allocator@D@1@@std@@YA?AV?$basic_string@DU?$char_traits@D@std@@V?$allocator@D@2@@0@ABV10@0@Z
	??$?HDU?$char_traits@D@std@@V?$allocator@D@1@@std@@YA?AV?$basic_string@DU?$char_traits@D@std@@V?$allocator@D@2@@0@ABV10@QBD@Z
	??$?HDU?$char_traits@D@std@@V?$allocator@D@1@@std@@YA?AV?$basic_string@DU?$char_traits@D@std@@V?$allocator@D@2@@0@QBD$$QAV10@@Z
	??$?HDU?$char_traits@D@std@@V?$allocator@D@1@@std@@YA?AV?$basic_string@DU?$char_traits@D@std@@V?$allocator@D@2@@0@QBDABV10@@Z
	??$?MDU?$char_traits@D@std@@V?$allocator@D@1@@std@@YA_NABV?$basic_string@DU?$char_traits@D@std@@V?$allocator@D@2@@0@0@Z
	??$?MNU?$ratio@$00$00@std@@_JU?$ratio@$00$0DLJKMKAA@@1@@chrono@std@@YA_NABV?$duration@NU?$ratio@$00$00@std@@@01@ABV?$duration@_JU?$ratio@$00$0DLJKMKAA@@std@@@01@@Z
	??$?MUsteady_clock@chrono@std@@V?$duration@_JU?$ratio@$00$0DLJKMKAA@@std@@@12@V312@@chrono@std@@YA_NABV?$time_point@Usteady_clock@chrono@std@@V?$duration@_JU?$ratio@$00$0DLJKMKAA@@std@@@23@@01@0@Z
	??$?M_JU?$ratio@$00$0DLJKMKAA@@std@@_JU01@@chrono@std@@YA_NABV?$duration@_JU?$ratio@$00$0DLJKMKAA@@std@@@01@0@Z
	??$?M_JU?$ratio@$00$0DOI@@std@@_JU01@@chrono@std@@YA_NABV?$duration@_JU?$ratio@$00$0DOI@@std@@@01@0@Z
	??$?NUsteady_clock@chrono@std@@V?$duration@_JU?$ratio@$00$0DLJKMKAA@@std@@@12@V312@@chrono@std@@YA_NABV?$time_point@Usteady_clock@chrono@std@@V?$duration@_JU?$ratio@$00$0DLJKMKAA@@std@@@23@@01@0@Z
	??$?O_JU?$ratio@$00$0DOI@@std@@_JU01@@chrono@std@@YA_NABV?$duration@_JU?$ratio@$00$0DOI@@std@@@01@0@Z
	??$_Adl_verify_range@PADPAD@std@@YAXABQAD0@Z
	??$_Adl_verify_range@PAPAV?$function@$$A6AXXZ@std@@PAPAV12@@std@@YAXABQAPAV?$function@$$A6AXXZ@0@0@Z
	??$_Adl_verify_range@PAPAV?$shared_ptr@VInterceptor@cpr@@@std@@PAPAV12@@std@@YAXABQAPAV?$shared_ptr@VInterceptor@cpr@@@0@0@Z
	??$_Adl_verify_range@PAUParameter@cpr@@PAU12@@std@@YAXABQAUParameter@cpr@@0@Z
	??$_Adl_verify_range@PAV?$basic_string@DU?$char_traits@D@std@@V?$allocator@D@2@@std@@PAV12@@std@@YAXABQAV?$basic_string@DU?$char_traits@D@std@@V?$allocator@D@2@@0@0@Z
	??$_Adl_verify_range@PBU?$pair@$$CBV?$basic_string@DU?$char_traits@D@std@@V?$allocator@D@2@@std@@V12@@std@@PBU12@@std@@YAXABQBU?$pair@$$CBV?$basic_string@DU?$char_traits@D@std@@V?$allocator@D@2@@std@@V12@@0@0@Z
	??$_Adl_verify_range@PBU?$pair@$$CBW4AcceptEncodingMethods@cpr@@V?$basic_string@DU?$char_traits@D@std@@V?$allocator@D@2@@std@@@std@@PBU12@@std@@YAXABQBU?$pair@$$CBW4AcceptEncodingMethods@cpr@@V?$basic_string@DU?$char_traits@D@std@@V?$allocator@D@2@@std@@@0@0@Z
	??$_Adl_verify_range@PBUPair@cpr@@PBU12@@std@@YAXABQBUPair@cpr@@0@Z
	??$_Adl_verify_range@PBUParameter@cpr@@PBU12@@std@@YAXABQBUParameter@cpr@@0@Z
	??$_Adl_verify_range@PBW4AcceptEncodingMethods@cpr@@PBW412@@std@@YAXABQBW4AcceptEncodingMethods@cpr@@0@Z
	??$_Adl_verify_range@V?$_String_const_iterator@V?$_String_val@U?$_Simple_types@D@std@@@std@@@std@@V12@@std@@YAXABV?$_String_const_iterator@V?$_String_val@U?$_Simple_types@D@std@@@std@@@0@0@Z
	??$_Adl_verify_range@V?$_String_iterator@V?$_String_val@U?$_Simple_types@D@std@@@std@@@std@@V12@@std@@YAXABV?$_String_iterator@V?$_String_val@U?$_Simple_types@D@std@@@std@@@0@0@Z
	??$_Adl_verify_range@V?$_Vector_const_iterator@V?$_Vector_val@U?$_Simple_types@V?$basic_string@DU?$char_traits@D@std@@V?$allocator@D@2@@std@@@std@@@std@@@std@@V12@@std@@YAXABV?$_Vector_const_iterator@V?$_Vector_val@U?$_Simple_types@V?$basic_string@DU?$char_traits@D@std@@V?$allocator@D@2@@std@@@std@@@std@@@0@0@Z
	??$_Alloc_proxy@V?$allocator@U_Container_proxy@std@@@std@@@_Container_base12@std@@QAEX$$QAV?$allocator@U_Container_proxy@std@@@1@@Z
	??$_Allocate@$07U_Default_allocate_traits@std@@$0A@@std@@YAPAXI@Z
	??$_Allocate_manually_vector_aligned@U_Default_allocate_traits@std@@@std@@YAPAXI@Z
	??$_Allocators_equal@V?$allocator@D@std@@@std@@YA_NABV?$allocator@D@0@0@Z
	??$_Assign_range@PAUParameter@cpr@@@?$vector@UParameter@cpr@@V?$allocator@UParameter@cpr@@@std@@@std@@AAEXPAUParameter@cpr@@0Uforward_iterator_tag@1@@Z
	??$_Assign_range@PAV?$basic_string@DU?$char_traits@D@std@@V?$allocator@D@2@@std@@@?$vector@V?$basic_string@DU?$char_traits@D@std@@V?$allocator@D@2@@std@@V?$allocator@V?$basic_string@DU?$char_traits@D@std@@V?$allocator@D@2@@std@@@2@@std@@AAEXPAV?$basic_string@DU?$char_traits@D@std@@V?$allocator@D@2@@1@0Uforward_iterator_tag@1@@Z
	??$_Atomic_address_as@HU?$_Atomic_padded@I@std@@@std@@YAPDHABU?$_Atomic_padded@I@0@@Z
	??$_Atomic_address_as@HU?$_Atomic_padded@W4Status@ThreadPool@cpr@@@std@@@std@@YAPDHABU?$_Atomic_padded@W4Status@ThreadPool@cpr@@@0@@Z
	??$_Atomic_address_as@JU?$_Atomic_padded@I@std@@@std@@YAPCJAAU?$_Atomic_padded@I@0@@Z
	??$_Atomic_address_as@JU?$_Atomic_padded@W4Status@ThreadPool@cpr@@@std@@@std@@YAPCJAAU?$_Atomic_padded@W4Status@ThreadPool@cpr@@@0@@Z
	??$_Atomic_reinterpret_as@JI@std@@YAJABI@Z
	??$_Atomic_reinterpret_as@JW4Status@ThreadPool@cpr@@@std@@YAJABW4Status@ThreadPool@cpr@@@Z
	??$_Buyheadnode@V?$allocator@U?$_Tree_node@U?$pair@$$CBV?$basic_string@DU?$char_traits@D@std@@V?$allocator@D@2@@std@@V12@@std@@PAX@std@@@std@@@?$_Tree_node@U?$pair@$$CBV?$basic_string@DU?$char_traits@D@std@@V?$allocator@D@2@@std@@V12@@std@@PAX@std@@SAPAU01@AAV?$allocator@U?$_Tree_node@U?$pair@$$CBV?$basic_string@DU?$char_traits@D@std@@V?$allocator@D@2@@std@@V12@@std@@PAX@std@@@1@@Z
	??$_Buyheadnode@V?$allocator@U?$_Tree_node@U?$pair@$$CBV?$basic_string@DU?$char_traits@D@std@@V?$allocator@D@2@@std@@VEncodedAuthentication@cpr@@@std@@PAX@std@@@std@@@?$_Tree_node@U?$pair@$$CBV?$basic_string@DU?$char_traits@D@std@@V?$allocator@D@2@@std@@VEncodedAuthentication@cpr@@@std@@PAX@std@@SAPAU01@AAV?$allocator@U?$_Tree_node@U?$pair@$$CBV?$basic_string@DU?$char_traits@D@std@@V?$allocator@D@2@@std@@VEncodedAuthentication@cpr@@@std@@PAX@std@@@1@@Z
	??$_Buyheadnode@V?$allocator@U?$_Tree_node@U?$pair@$$CBW4AcceptEncodingMethods@cpr@@V?$basic_string@DU?$char_traits@D@std@@V?$allocator@D@2@@std@@@std@@PAX@std@@@std@@@?$_Tree_node@U?$pair@$$CBW4AcceptEncodingMethods@cpr@@V?$basic_string@DU?$char_traits@D@std@@V?$allocator@D@2@@std@@@std@@PAX@std@@SAPAU01@AAV?$allocator@U?$_Tree_node@U?$pair@$$CBW4AcceptEncodingMethods@cpr@@V?$basic_string@DU?$char_traits@D@std@@V?$allocator@D@2@@std@@@std@@PAX@std@@@1@@Z
	??$_Buynode@AAU?$pair@$$CBV?$basic_string@DU?$char_traits@D@std@@V?$allocator@D@2@@std@@V12@@std@@@?$_Tree@V?$_Tmap_traits@V?$basic_string@DU?$char_traits@D@std@@V?$allocator@D@2@@std@@V12@U?$less@V?$basic_string@DU?$char_traits@D@std@@V?$allocator@D@2@@std@@@2@V?$allocator@U?$pair@$$CBV?$basic_string@DU?$char_traits@D@std@@V?$allocator@D@2@@std@@V12@@std@@@2@$0A@@std@@@std@@IAEPAU?$_Tree_node@U?$pair@$$CBV?$basic_string@DU?$char_traits@D@std@@V?$allocator@D@2@@std@@V12@@std@@PAX@1@AAU?$pair@$$CBV?$basic_string@DU?$char_traits@D@std@@V?$allocator@D@2@@std@@V12@@1@@Z
	??$_Buynode@AAU?$pair@$$CBV?$basic_string@DU?$char_traits@D@std@@V?$allocator@D@2@@std@@V12@@std@@@?$_Tree@V?$_Tmap_traits@V?$basic_string@DU?$char_traits@D@std@@V?$allocator@D@2@@std@@V12@UCaseInsensitiveCompare@cpr@@V?$allocator@U?$pair@$$CBV?$basic_string@DU?$char_traits@D@std@@V?$allocator@D@2@@std@@V12@@std@@@2@$0A@@std@@@std@@IAEPAU?$_Tree_node@U?$pair@$$CBV?$basic_string@DU?$char_traits@D@std@@V?$allocator@D@2@@std@@V12@@std@@PAX@1@AAU?$pair@$$CBV?$basic_string@DU?$char_traits@D@std@@V?$allocator@D@2@@std@@V12@@1@@Z
	??$_Buynode@AAU?$pair@$$CBV?$basic_string@DU?$char_traits@D@std@@V?$allocator@D@2@@std@@VEncodedAuthentication@cpr@@@std@@@?$_Tree@V?$_Tmap_traits@V?$basic_string@DU?$char_traits@D@std@@V?$allocator@D@2@@std@@VEncodedAuthentication@cpr@@U?$less@V?$basic_string@DU?$char_traits@D@std@@V?$allocator@D@2@@std@@@2@V?$allocator@U?$pair@$$CBV?$basic_string@DU?$char_traits@D@std@@V?$allocator@D@2@@std@@VEncodedAuthentication@cpr@@@std@@@2@$0A@@std@@@std@@IAEPAU?$_Tree_node@U?$pair@$$CBV?$basic_string@DU?$char_traits@D@std@@V?$allocator@D@2@@std@@VEncodedAuthentication@cpr@@@std@@PAX@1@AAU?$pair@$$CBV?$basic_string@DU?$char_traits@D@std@@V?$allocator@D@2@@std@@VEncodedAuthentication@cpr@@@1@@Z
	??$_Buynode@V?$allocator@U?$_Tree_node@U?$pair@$$CBV?$basic_string@DU?$char_traits@D@std@@V?$allocator@D@2@@std@@V12@@std@@PAX@std@@@std@@AAU?$pair@$$CBV?$basic_string@DU?$char_traits@D@std@@V?$allocator@D@2@@std@@V12@@2@@?$_Tree_node@U?$pair@$$CBV?$basic_string@DU?$char_traits@D@std@@V?$allocator@D@2@@std@@V12@@std@@PAX@std@@SAPAU01@AAV?$allocator@U?$_Tree_node@U?$pair@$$CBV?$basic_string@DU?$char_traits@D@std@@V?$allocator@D@2@@std@@V12@@std@@PAX@std@@@1@PAU01@AAU?$pair@$$CBV?$basic_string@DU?$char_traits@D@std@@V?$allocator@D@2@@std@@V12@@1@@Z
	??$_Buynode@V?$allocator@U?$_Tree_node@U?$pair@$$CBV?$basic_string@DU?$char_traits@D@std@@V?$allocator@D@2@@std@@VEncodedAuthentication@cpr@@@std@@PAX@std@@@std@@AAU?$pair@$$CBV?$basic_string@DU?$char_traits@D@std@@V?$allocator@D@2@@std@@VEncodedAuthentication@cpr@@@2@@?$_Tree_node@U?$pair@$$CBV?$basic_string@DU?$char_traits@D@std@@V?$allocator@D@2@@std@@VEncodedAuthentication@cpr@@@std@@PAX@std@@SAPAU01@AAV?$allocator@U?$_Tree_node@U?$pair@$$CBV?$basic_string@DU?$char_traits@D@std@@V?$allocator@D@2@@std@@VEncodedAuthentication@cpr@@@std@@PAX@std@@@1@PAU01@AAU?$pair@$$CBV?$basic_string@DU?$char_traits@D@std@@V?$allocator@D@2@@std@@VEncodedAuthentication@cpr@@@1@@Z
	??$_Construct@$00PAD@?$basic_string@DU?$char_traits@D@std@@V?$allocator@D@2@@std@@AAEXQADI@Z
	??$_Construct@$00PBD@?$basic_string@DU?$char_traits@D@std@@V?$allocator@D@2@@std@@AAEXQBDI@Z
	??$_Construct@$01PBD@?$basic_string@DU?$char_traits@D@std@@V?$allocator@D@2@@std@@AAEXQBDI@Z
	??$_Construct_from_weak@VSession@cpr@@@?$_Ptr_base@VSession@cpr@@@std@@IAE_NABV?$weak_ptr@VSession@cpr@@@1@@Z
	??$_Construct_in_place@PADAAPAD@std@@YAXAAPAD0@Z
	??$_Construct_in_place@PADABQAD@std@@YAXAAPADABQAD@Z
	??$_Construct_in_place@PAU?$_List_node@UThreadData@ThreadPool@cpr@@PAX@std@@AAPAU12@@std@@YAXAAPAU?$_List_node@UThreadData@ThreadPool@cpr@@PAX@0@0@Z
	??$_Construct_in_place@PAU?$_List_node@UThreadData@ThreadPool@cpr@@PAX@std@@ABQAU12@@std@@YAXAAPAU?$_List_node@UThreadData@ThreadPool@cpr@@PAX@0@ABQAU10@@Z
	??$_Construct_in_place@PAU?$_Tree_node@U?$pair@$$CBV?$basic_string@DU?$char_traits@D@std@@V?$allocator@D@2@@std@@V12@@std@@PAX@std@@AAPAU12@@std@@YAXAAPAU?$_Tree_node@U?$pair@$$CBV?$basic_string@DU?$char_traits@D@std@@V?$allocator@D@2@@std@@V12@@std@@PAX@0@0@Z
	??$_Construct_in_place@PAU?$_Tree_node@U?$pair@$$CBV?$basic_string@DU?$char_traits@D@std@@V?$allocator@D@2@@std@@V12@@std@@PAX@std@@ABQAU12@@std@@YAXAAPAU?$_Tree_node@U?$pair@$$CBV?$basic_string@DU?$char_traits@D@std@@V?$allocator@D@2@@std@@V12@@std@@PAX@0@ABQAU10@@Z
	??$_Construct_in_place@PAU?$_Tree_node@U?$pair@$$CBV?$basic_string@DU?$char_traits@D@std@@V?$allocator@D@2@@std@@VEncodedAuthentication@cpr@@@std@@PAX@std@@AAPAU12@@std@@YAXAAPAU?$_Tree_node@U?$pair@$$CBV?$basic_string@DU?$char_traits@D@std@@V?$allocator@D@2@@std@@VEncodedAuthentication@cpr@@@std@@PAX@0@0@Z
	??$_Construct_in_place@PAU?$_Tree_node@U?$pair@$$CBV?$basic_string@DU?$char_traits@D@std@@V?$allocator@D@2@@std@@VEncodedAuthentication@cpr@@@std@@PAX@std@@ABQAU12@@std@@YAXAAPAU?$_Tree_node@U?$pair@$$CBV?$basic_string@DU?$char_traits@D@std@@V?$allocator@D@2@@std@@VEncodedAuthentication@cpr@@@std@@PAX@0@ABQAU10@@Z
	??$_Construct_in_place@PAU?$_Tree_node@U?$pair@$$CBW4AcceptEncodingMethods@cpr@@V?$basic_string@DU?$char_traits@D@std@@V?$allocator@D@2@@std@@@std@@PAX@std@@AAPAU12@@std@@YAXAAPAU?$_Tree_node@U?$pair@$$CBW4AcceptEncodingMethods@cpr@@V?$basic_string@DU?$char_traits@D@std@@V?$allocator@D@2@@std@@@std@@PAX@0@0@Z
	??$_Construct_in_place@PAU?$_Tree_node@U?$pair@$$CBW4AcceptEncodingMethods@cpr@@V?$basic_string@DU?$char_traits@D@std@@V?$allocator@D@2@@std@@@std@@PAX@std@@ABQAU12@@std@@YAXAAPAU?$_Tree_node@U?$pair@$$CBW4AcceptEncodingMethods@cpr@@V?$basic_string@DU?$char_traits@D@std@@V?$allocator@D@2@@std@@@std@@PAX@0@ABQAU10@@Z
	??$_Construct_in_place@PAV?$function@$$A6AXXZ@std@@AAPAV12@@std@@YAXAAPAV?$function@$$A6AXXZ@0@0@Z
	??$_Construct_in_place@PAV?$shared_ptr@VInterceptor@cpr@@@std@@AAPAV12@@std@@YAXAAPAV?$shared_ptr@VInterceptor@cpr@@@0@0@Z
	??$_Construct_in_place@UPair@cpr@@U12@@std@@YAXAAUPair@cpr@@$$QAU12@@Z
	??$_Construct_in_place@UParameter@cpr@@U12@@std@@YAXAAUParameter@cpr@@$$QAU12@@Z
	??$_Construct_in_place@U_Container_proxy@std@@PAU_Container_base12@2@@std@@YAXAAU_Container_proxy@0@$$QAPAU_Container_base12@0@@Z
	??$_Construct_in_place@Ucurl_forms@@U1@@std@@YAXAAUcurl_forms@@$$QAU1@@Z
	??$_Construct_in_place@V?$basic_string@DU?$char_traits@D@std@@V?$allocator@D@2@@std@@V12@@std@@YAXAAV?$basic_string@DU?$char_traits@D@std@@V?$allocator@D@2@@0@$$QAV10@@Z
	??$_Construct_n@ABQAV?$basic_string@DU?$char_traits@D@std@@V?$allocator@D@2@@std@@ABQAV12@@?$vector@V?$basic_string@DU?$char_traits@D@std@@V?$allocator@D@2@@std@@V?$allocator@V?$basic_string@DU?$char_traits@D@std@@V?$allocator@D@2@@std@@@2@@std@@AAEXIABQAV?$basic_string@DU?$char_traits@D@std@@V?$allocator@D@2@@1@0@Z
	??$_Construct_n@PBUPair@cpr@@PBU12@@?$vector@UPair@cpr@@V?$allocator@UPair@cpr@@@std@@@std@@AAEXI$$QAPBUPair@cpr@@0@Z
	??$_Construct_n@PBUParameter@cpr@@PBU12@@?$vector@UParameter@cpr@@V?$allocator@UParameter@cpr@@@std@@@std@@AAEXI$$QAPBUParameter@cpr@@0@Z
	??$_Construct_n@PBUPart@cpr@@PBU12@@?$vector@UPart@cpr@@V?$allocator@UPart@cpr@@@std@@@std@@AAEXI$$QAPBUPart@cpr@@0@Z
	??$_Construct_n@PBV?$basic_string@DU?$char_traits@D@std@@V?$allocator@D@2@@std@@PBV12@@?$vector@V?$basic_string@DU?$char_traits@D@std@@V?$allocator@D@2@@std@@V?$allocator@V?$basic_string@DU?$char_traits@D@std@@V?$allocator@D@2@@std@@@2@@std@@AAEXI$$QAPBV?$basic_string@DU?$char_traits@D@std@@V?$allocator@D@2@@1@0@Z
	??$_Convert_size@I@std@@YAII@Z
	??$_Copy@$0A@@?$_Tree@V?$_Tmap_traits@V?$basic_string@DU?$char_traits@D@std@@V?$allocator@D@2@@std@@V12@U?$less@V?$basic_string@DU?$char_traits@D@std@@V?$allocator@D@2@@std@@@2@V?$allocator@U?$pair@$$CBV?$basic_string@DU?$char_traits@D@std@@V?$allocator@D@2@@std@@V12@@std@@@2@$0A@@std@@@std@@IAEXABV01@@Z
	??$_Copy@$0A@@?$_Tree@V?$_Tmap_traits@V?$basic_string@DU?$char_traits@D@std@@V?$allocator@D@2@@std@@V12@UCaseInsensitiveCompare@cpr@@V?$allocator@U?$pair@$$CBV?$basic_string@DU?$char_traits@D@std@@V?$allocator@D@2@@std@@V12@@std@@@2@$0A@@std@@@std@@IAEXABV01@@Z
	??$_Copy@$0A@@?$_Tree@V?$_Tmap_traits@V?$basic_string@DU?$char_traits@D@std@@V?$allocator@D@2@@std@@VEncodedAuthentication@cpr@@U?$less@V?$basic_string@DU?$char_traits@D@std@@V?$allocator@D@2@@std@@@2@V?$allocator@U?$pair@$$CBV?$basic_string@DU?$char_traits@D@std@@V?$allocator@D@2@@std@@VEncodedAuthentication@cpr@@@std@@@2@$0A@@std@@@std@@IAEXABV01@@Z
	??$_Copy_construct_from@UCurlHolder@cpr@@@?$_Ptr_base@UCurlHolder@cpr@@@std@@IAEXABV?$shared_ptr@UCurlHolder@cpr@@@1@@Z
	??$_Copy_construct_from@V?$packaged_task@$$A6A?AVResponse@cpr@@XZ@std@@@?$_Ptr_base@V?$packaged_task@$$A6A?AVResponse@cpr@@XZ@std@@@std@@IAEXABV?$shared_ptr@V?$packaged_task@$$A6A?AVResponse@cpr@@XZ@std@@@1@@Z
	??$_Copy_construct_from@VInterceptor@cpr@@@?$_Ptr_base@VInterceptor@cpr@@@std@@IAEXABV?$shared_ptr@VInterceptor@cpr@@@1@@Z
	??$_Copy_construct_from@VSession@cpr@@@?$_Ptr_base@VSession@cpr@@@std@@IAEXABV?$shared_ptr@VSession@cpr@@@1@@Z
	??$_Copy_construct_from@Vthread@std@@@?$_Ptr_base@Vthread@std@@@std@@IAEXABV?$shared_ptr@Vthread@std@@@1@@Z
	??$_Copy_memmove@PAPAV?$function@$$A6AXXZ@std@@PAPAV12@@std@@YAPAPAV?$function@$$A6AXXZ@0@PAPAV10@00@Z
	??$_Copy_memmove@PAPAV?$shared_ptr@VInterceptor@cpr@@@std@@PAPAV12@@std@@YAPAPAV?$shared_ptr@VInterceptor@cpr@@@0@PAPAV10@00@Z
	??$_Copy_memmove@PAUcurl_forms@@PAU1@@std@@YAPAUcurl_forms@@PAU1@00@Z
	??$_Copy_nodes@$0A@@?$_Tree@V?$_Tmap_traits@V?$basic_string@DU?$char_traits@D@std@@V?$allocator@D@2@@std@@V12@U?$less@V?$basic_string@DU?$char_traits@D@std@@V?$allocator@D@2@@std@@@2@V?$allocator@U?$pair@$$CBV?$basic_string@DU?$char_traits@D@std@@V?$allocator@D@2@@std@@V12@@std@@@2@$0A@@std@@@std@@IAEPAU?$_Tree_node@U?$pair@$$CBV?$basic_string@DU?$char_traits@D@std@@V?$allocator@D@2@@std@@V12@@std@@PAX@1@PAU21@0@Z
	??$_Copy_nodes@$0A@@?$_Tree@V?$_Tmap_traits@V?$basic_string@DU?$char_traits@D@std@@V?$allocator@D@2@@std@@V12@UCaseInsensitiveCompare@cpr@@V?$allocator@U?$pair@$$CBV?$basic_string@DU?$char_traits@D@std@@V?$allocator@D@2@@std@@V12@@std@@@2@$0A@@std@@@std@@IAEPAU?$_Tree_node@U?$pair@$$CBV?$basic_string@DU?$char_traits@D@std@@V?$allocator@D@2@@std@@V12@@std@@PAX@1@PAU21@0@Z
	??$_Copy_nodes@$0A@@?$_Tree@V?$_Tmap_traits@V?$basic_string@DU?$char_traits@D@std@@V?$allocator@D@2@@std@@VEncodedAuthentication@cpr@@U?$less@V?$basic_string@DU?$char_traits@D@std@@V?$allocator@D@2@@std@@@2@V?$allocator@U?$pair@$$CBV?$basic_string@DU?$char_traits@D@std@@V?$allocator@D@2@@std@@VEncodedAuthentication@cpr@@@std@@@2@$0A@@std@@@std@@IAEPAU?$_Tree_node@U?$pair@$$CBV?$basic_string@DU?$char_traits@D@std@@V?$allocator@D@2@@std@@VEncodedAuthentication@cpr@@@std@@PAX@1@PAU21@0@Z
	??$_Copy_or_move@$0A@U?$pair@$$CBV?$basic_string@DU?$char_traits@D@std@@V?$allocator@D@2@@std@@V12@@std@@@?$_Tree@V?$_Tmap_traits@V?$basic_string@DU?$char_traits@D@std@@V?$allocator@D@2@@std@@V12@U?$less@V?$basic_string@DU?$char_traits@D@std@@V?$allocator@D@2@@std@@@2@V?$allocator@U?$pair@$$CBV?$basic_string@DU?$char_traits@D@std@@V?$allocator@D@2@@std@@V12@@std@@@2@$0A@@std@@@std@@IAEPAU?$_Tree_node@U?$pair@$$CBV?$basic_string@DU?$char_traits@D@std@@V?$allocator@D@2@@std@@V12@@std@@PAX@1@AAU?$pair@$$CBV?$basic_string@DU?$char_traits@D@std@@V?$allocator@D@2@@std@@V12@@1@@Z
	??$_Copy_or_move@$0A@U?$pair@$$CBV?$basic_string@DU?$char_traits@D@std@@V?$allocator@D@2@@std@@V12@@std@@@?$_Tree@V?$_Tmap_traits@V?$basic_string@DU?$char_traits@D@std@@V?$allocator@D@2@@std@@V12@UCaseInsensitiveCompare@cpr@@V?$allocator@U?$pair@$$CBV?$basic_string@DU?$char_traits@D@std@@V?$allocator@D@2@@std@@V12@@std@@@2@$0A@@std@@@std@@IAEPAU?$_Tree_node@U?$pair@$$CBV?$basic_string@DU?$char_traits@D@std@@V?$allocator@D@2@@std@@V12@@std@@PAX@1@AAU?$pair@$$CBV?$basic_string@DU?$char_traits@D@std@@V?$allocator@D@2@@std@@V12@@1@@Z
	??$_Copy_or_move@$0A@U?$pair@$$CBV?$basic_string@DU?$char_traits@D@std@@V?$allocator@D@2@@std@@VEncodedAuthentication@cpr@@@std@@@?$_Tree@V?$_Tmap_traits@V?$basic_string@DU?$char_traits@D@std@@V?$allocator@D@2@@std@@VEncodedAuthentication@cpr@@U?$less@V?$basic_string@DU?$char_traits@D@std@@V?$allocator@D@2@@std@@@2@V?$allocator@U?$pair@$$CBV?$basic_string@DU?$char_traits@D@std@@V?$allocator@D@2@@std@@VEncodedAuthentication@cpr@@@std@@@2@$0A@@std@@@std@@IAEPAU?$_Tree_node@U?$pair@$$CBV?$basic_string@DU?$char_traits@D@std@@V?$allocator@D@2@@std@@VEncodedAuthentication@cpr@@@std@@PAX@1@AAU?$pair@$$CBV?$basic_string@DU?$char_traits@D@std@@V?$allocator@D@2@@std@@VEncodedAuthentication@cpr@@@1@@Z
	??$_Copy_unchecked@PAUParameter@cpr@@PAU12@@std@@YAPAUParameter@cpr@@PAU12@00@Z
	??$_Copy_unchecked@PAV?$basic_string@DU?$char_traits@D@std@@V?$allocator@D@2@@std@@PAV12@@std@@YAPAV?$basic_string@DU?$char_traits@D@std@@V?$allocator@D@2@@0@PAV10@00@Z
	??$_Deallocate@$03$0A@@std@@YAXPAXI@Z
	??$_Deallocate@$07$0A@@std@@YAXPAXI@Z
	??$_Deallocate_plain@V?$allocator@U_Container_proxy@std@@@std@@@std@@YAXAAV?$allocator@U_Container_proxy@std@@@0@QAU_Container_proxy@0@@Z
	??$_Debug_lt_pred@ABU?$less@V?$basic_string@DU?$char_traits@D@std@@V?$allocator@D@2@@std@@@std@@ABV?$basic_string@DU?$char_traits@D@std@@V?$allocator@D@2@@2@ABV32@$0A@@std@@YA_NABU?$less@V?$basic_string@DU?$char_traits@D@std@@V?$allocator@D@2@@std@@@0@ABV?$basic_string@DU?$char_traits@D@std@@V?$allocator@D@2@@0@1@Z
	??$_Debug_lt_pred@ABU?$less@W4AcceptEncodingMethods@cpr@@@std@@ABW4AcceptEncodingMethods@cpr@@ABW434@$0A@@std@@YA_NABU?$less@W4AcceptEncodingMethods@cpr@@@0@ABW4AcceptEncodingMethods@cpr@@1@Z
	??$_Debug_lt_pred@ABUCaseInsensitiveCompare@cpr@@ABV?$basic_string@DU?$char_traits@D@std@@V?$allocator@D@2@@std@@ABV34@$0A@@std@@YA_NABUCaseInsensitiveCompare@cpr@@ABV?$basic_string@DU?$char_traits@D@std@@V?$allocator@D@2@@0@1@Z
	??$_Delete_plain_internal@V?$allocator@U_Container_proxy@std@@@std@@@std@@YAXAAV?$allocator@U_Container_proxy@std@@@0@QAU_Container_proxy@0@@Z
	??$_Destroy_in_place@PAD@std@@YAXAAPAD@Z
	??$_Destroy_in_place@PAU?$_List_node@UThreadData@ThreadPool@cpr@@PAX@std@@@std@@YAXAAPAU?$_List_node@UThreadData@ThreadPool@cpr@@PAX@0@@Z
	??$_Destroy_in_place@PAU?$_Tree_node@U?$pair@$$CBV?$basic_string@DU?$char_traits@D@std@@V?$allocator@D@2@@std@@V12@@std@@PAX@std@@@std@@YAXAAPAU?$_Tree_node@U?$pair@$$CBV?$basic_string@DU?$char_traits@D@std@@V?$allocator@D@2@@std@@V12@@std@@PAX@0@@Z
	??$_Destroy_in_place@PAU?$_Tree_node@U?$pair@$$CBV?$basic_string@DU?$char_traits@D@std@@V?$allocator@D@2@@std@@VEncodedAuthentication@cpr@@@std@@PAX@std@@@std@@YAXAAPAU?$_Tree_node@U?$pair@$$CBV?$basic_string@DU?$char_traits@D@std@@V?$allocator@D@2@@std@@VEncodedAuthentication@cpr@@@std@@PAX@0@@Z
	??$_Destroy_in_place@PAU?$_Tree_node@U?$pair@$$CBW4AcceptEncodingMethods@cpr@@V?$basic_string@DU?$char_traits@D@std@@V?$allocator@D@2@@std@@@std@@PAX@std@@@std@@YAXAAPAU?$_Tree_node@U?$pair@$$CBW4AcceptEncodingMethods@cpr@@V?$basic_string@DU?$char_traits@D@std@@V?$allocator@D@2@@std@@@std@@PAX@0@@Z
	??$_Destroy_in_place@PAV?$function@$$A6AXXZ@std@@@std@@YAXAAPAV?$function@$$A6AXXZ@0@@Z
	??$_Destroy_in_place@PAV?$shared_ptr@VInterceptor@cpr@@@std@@@std@@YAXAAPAV?$shared_ptr@VInterceptor@cpr@@@0@@Z
	??$_Destroy_in_place@V?$packaged_task@$$A6A?AVResponse@cpr@@XZ@std@@@std@@YAXAAV?$packaged_task@$$A6A?AVResponse@cpr@@XZ@0@@Z
	??$_Destroy_range@PAPAV?$function@$$A6AXXZ@std@@PAPAV12@@std@@YAXPAPAV?$function@$$A6AXXZ@0@QAPAV10@@Z
	??$_Destroy_range@PAPAV?$shared_ptr@VInterceptor@cpr@@@std@@PAPAV12@@std@@YAXPAPAV?$shared_ptr@VInterceptor@cpr@@@0@QAPAV10@@Z
	??$_Destroy_range@V?$allocator@UPair@cpr@@@std@@@std@@YAXPAUPair@cpr@@QAU12@AAV?$allocator@UPair@cpr@@@0@@Z
	??$_Destroy_range@V?$allocator@UParameter@cpr@@@std@@@std@@YAXPAUParameter@cpr@@QAU12@AAV?$allocator@UParameter@cpr@@@0@@Z
	??$_Destroy_range@V?$allocator@UPart@cpr@@@std@@@std@@YAXPAUPart@cpr@@QAU12@AAV?$allocator@UPart@cpr@@@0@@Z
	??$_Destroy_range@V?$allocator@Ucurl_forms@@@std@@@std@@YAXPAUcurl_forms@@QAU1@AAV?$allocator@Ucurl_forms@@@0@@Z
	??$_Destroy_range@V?$allocator@V?$basic_string@DU?$char_traits@D@std@@V?$allocator@D@2@@std@@@std@@@std@@YAXPAV?$basic_string@DU?$char_traits@D@std@@V?$allocator@D@2@@0@QAV10@AAV?$allocator@V?$basic_string@DU?$char_traits@D@std@@V?$allocator@D@2@@std@@@0@@Z
	??$_Destroy_range@V?$allocator@VCertInfo@cpr@@@std@@@std@@YAXPAVCertInfo@cpr@@QAV12@AAV?$allocator@VCertInfo@cpr@@@0@@Z
	??$_Destroy_range@V?$allocator@VCookie@cpr@@@std@@@std@@YAXPAVCookie@cpr@@QAV12@AAV?$allocator@VCookie@cpr@@@0@@Z
	??$_Emplace@AAUThreadData@ThreadPool@cpr@@@?$list@UThreadData@ThreadPool@cpr@@V?$allocator@UThreadData@ThreadPool@cpr@@@std@@@std@@QAEPAU?$_List_node@UThreadData@ThreadPool@cpr@@PAX@1@QAU21@AAUThreadData@ThreadPool@cpr@@@Z
	??$_Emplace_back@AAPAV?$function@$$A6AXXZ@std@@@?$_Uninitialized_backout@PAPAV?$function@$$A6AXXZ@std@@@std@@QAEXAAPAV?$function@$$A6AXXZ@1@@Z
	??$_Emplace_back@AAPAV?$shared_ptr@VInterceptor@cpr@@@std@@@?$_Uninitialized_backout@PAPAV?$shared_ptr@VInterceptor@cpr@@@std@@@std@@QAEXAAPAV?$shared_ptr@VInterceptor@cpr@@@1@@Z
	??$_Emplace_back@AAUParameter@cpr@@@?$_Uninitialized_backout_al@V?$allocator@UParameter@cpr@@@std@@@std@@QAEXAAUParameter@cpr@@@Z
	??$_Emplace_back@AAV?$basic_string@DU?$char_traits@D@std@@V?$allocator@D@2@@std@@@?$_Uninitialized_backout_al@V?$allocator@V?$basic_string@DU?$char_traits@D@std@@V?$allocator@D@2@@std@@@std@@@std@@QAEXAAV?$basic_string@DU?$char_traits@D@std@@V?$allocator@D@2@@1@@Z
	??$_Emplace_back@AAVCertInfo@cpr@@@?$_Uninitialized_backout_al@V?$allocator@VCertInfo@cpr@@@std@@@std@@QAEXAAVCertInfo@cpr@@@Z
	??$_Emplace_back@ABUPair@cpr@@@?$_Uninitialized_backout_al@V?$allocator@UPair@cpr@@@std@@@std@@QAEXABUPair@cpr@@@Z
	??$_Emplace_back@ABUParameter@cpr@@@?$_Uninitialized_backout_al@V?$allocator@UParameter@cpr@@@std@@@std@@QAEXABUParameter@cpr@@@Z
	??$_Emplace_back@ABUPart@cpr@@@?$_Uninitialized_backout_al@V?$allocator@UPart@cpr@@@std@@@std@@QAEXABUPart@cpr@@@Z
	??$_Emplace_back@ABV?$basic_string@DU?$char_traits@D@std@@V?$allocator@D@2@@std@@@?$_Uninitialized_backout_al@V?$allocator@V?$basic_string@DU?$char_traits@D@std@@V?$allocator@D@2@@std@@@std@@@std@@QAEXABV?$basic_string@DU?$char_traits@D@std@@V?$allocator@D@2@@1@@Z
	??$_Emplace_back@UPair@cpr@@@?$_Uninitialized_backout_al@V?$allocator@UPair@cpr@@@std@@@std@@QAEX$$QAUPair@cpr@@@Z
	??$_Emplace_back@UParameter@cpr@@@?$_Uninitialized_backout_al@V?$allocator@UParameter@cpr@@@std@@@std@@QAEX$$QAUParameter@cpr@@@Z
	??$_Emplace_back@Ucurl_forms@@@?$_Uninitialized_backout_al@V?$allocator@Ucurl_forms@@@std@@@std@@QAEX$$QAUcurl_forms@@@Z
	??$_Emplace_back@V?$basic_string@DU?$char_traits@D@std@@V?$allocator@D@2@@std@@@?$_Uninitialized_backout_al@V?$allocator@V?$basic_string@DU?$char_traits@D@std@@V?$allocator@D@2@@std@@@std@@@std@@QAEX$$QAV?$basic_string@DU?$char_traits@D@std@@V?$allocator@D@2@@1@@Z
	??$_Emplace_back@VCertInfo@cpr@@@?$_Uninitialized_backout_al@V?$allocator@VCertInfo@cpr@@@std@@@std@@QAEX$$QAVCertInfo@cpr@@@Z
	??$_Emplace_back@VCookie@cpr@@@?$_Uninitialized_backout_al@V?$allocator@VCookie@cpr@@@std@@@std@@QAEX$$QAVCookie@cpr@@@Z
	??$_Emplace_back_internal@ABV?$shared_ptr@VInterceptor@cpr@@@std@@@?$deque@V?$shared_ptr@VInterceptor@cpr@@@std@@V?$allocator@V?$shared_ptr@VInterceptor@cpr@@@std@@@2@@std@@AAEXABV?$shared_ptr@VInterceptor@cpr@@@1@@Z
	??$_Emplace_back_with_unused_capacity@AAVCertInfo@cpr@@@?$vector@VCertInfo@cpr@@V?$allocator@VCertInfo@cpr@@@std@@@std@@AAEAAVCertInfo@cpr@@AAV23@@Z
	??$_Emplace_back_with_unused_capacity@AAY00$$CBD@?$vector@V?$basic_string@DU?$char_traits@D@std@@V?$allocator@D@2@@std@@V?$allocator@V?$basic_string@DU?$char_traits@D@std@@V?$allocator@D@2@@std@@@2@@std@@AAEAAV?$basic_string@DU?$char_traits@D@std@@V?$allocator@D@2@@1@AAY00$$CBD@Z
	??$_Emplace_back_with_unused_capacity@ABUPair@cpr@@@?$vector@UPair@cpr@@V?$allocator@UPair@cpr@@@std@@@std@@AAEAAUPair@cpr@@ABU23@@Z
	??$_Emplace_back_with_unused_capacity@ABUParameter@cpr@@@?$vector@UParameter@cpr@@V?$allocator@UParameter@cpr@@@std@@@std@@AAEAAUParameter@cpr@@ABU23@@Z
	??$_Emplace_back_with_unused_capacity@ABV?$basic_string@DU?$char_traits@D@std@@V?$allocator@D@2@@std@@@?$vector@V?$basic_string@DU?$char_traits@D@std@@V?$allocator@D@2@@std@@V?$allocator@V?$basic_string@DU?$char_traits@D@std@@V?$allocator@D@2@@std@@@2@@std@@AAEAAV?$basic_string@DU?$char_traits@D@std@@V?$allocator@D@2@@1@ABV21@@Z
	??$_Emplace_back_with_unused_capacity@ABVCookie@cpr@@@?$vector@VCookie@cpr@@V?$allocator@VCookie@cpr@@@std@@@std@@AAEAAVCookie@cpr@@ABV23@@Z
	??$_Emplace_back_with_unused_capacity@UPair@cpr@@@?$vector@UPair@cpr@@V?$allocator@UPair@cpr@@@std@@@std@@AAEAAUPair@cpr@@$$QAU23@@Z
	??$_Emplace_back_with_unused_capacity@UParameter@cpr@@@?$vector@UParameter@cpr@@V?$allocator@UParameter@cpr@@@std@@@std@@AAEAAUParameter@cpr@@$$QAU23@@Z
	??$_Emplace_back_with_unused_capacity@Ucurl_forms@@@?$vector@Ucurl_forms@@V?$allocator@Ucurl_forms@@@std@@@std@@AAEAAUcurl_forms@@$$QAU2@@Z
	??$_Emplace_back_with_unused_capacity@V?$basic_string@DU?$char_traits@D@std@@V?$allocator@D@2@@std@@@?$vector@V?$basic_string@DU?$char_traits@D@std@@V?$allocator@D@2@@std@@V?$allocator@V?$basic_string@DU?$char_traits@D@std@@V?$allocator@D@2@@std@@@2@@std@@AAEAAV?$basic_string@DU?$char_traits@D@std@@V?$allocator@D@2@@1@$$QAV21@@Z
	??$_Emplace_hint@ABU?$pair@$$CBV?$basic_string@DU?$char_traits@D@std@@V?$allocator@D@2@@std@@V12@@std@@@?$_Tree@V?$_Tmap_traits@V?$basic_string@DU?$char_traits@D@std@@V?$allocator@D@2@@std@@V12@U?$less@V?$basic_string@DU?$char_traits@D@std@@V?$allocator@D@2@@std@@@2@V?$allocator@U?$pair@$$CBV?$basic_string@DU?$char_traits@D@std@@V?$allocator@D@2@@std@@V12@@std@@@2@$0A@@std@@@std@@IAEPAU?$_Tree_node@U?$pair@$$CBV?$basic_string@DU?$char_traits@D@std@@V?$allocator@D@2@@std@@V12@@std@@PAX@1@QAU21@ABU?$pair@$$CBV?$basic_string@DU?$char_traits@D@std@@V?$allocator@D@2@@std@@V12@@1@@Z
	??$_Emplace_hint@ABU?$pair@$$CBW4AcceptEncodingMethods@cpr@@V?$basic_string@DU?$char_traits@D@std@@V?$allocator@D@2@@std@@@std@@@?$_Tree@V?$_Tmap_traits@W4AcceptEncodingMethods@cpr@@V?$basic_string@DU?$char_traits@D@std@@V?$allocator@D@2@@std@@U?$less@W4AcceptEncodingMethods@cpr@@@4@V?$allocator@U?$pair@$$CBW4AcceptEncodingMethods@cpr@@V?$basic_string@DU?$char_traits@D@std@@V?$allocator@D@2@@std@@@std@@@4@$0A@@std@@@std@@IAEPAU?$_Tree_node@U?$pair@$$CBW4AcceptEncodingMethods@cpr@@V?$basic_string@DU?$char_traits@D@std@@V?$allocator@D@2@@std@@@std@@PAX@1@QAU21@ABU?$pair@$$CBW4AcceptEncodingMethods@cpr@@V?$basic_string@DU?$char_traits@D@std@@V?$allocator@D@2@@std@@@1@@Z
	??$_Emplace_one_at_back@AAVCertInfo@cpr@@@?$vector@VCertInfo@cpr@@V?$allocator@VCertInfo@cpr@@@std@@@std@@AAEAAVCertInfo@cpr@@AAV23@@Z
	??$_Emplace_one_at_back@AAY00$$CBD@?$vector@V?$basic_string@DU?$char_traits@D@std@@V?$allocator@D@2@@std@@V?$allocator@V?$basic_string@DU?$char_traits@D@std@@V?$allocator@D@2@@std@@@2@@std@@AAEAAV?$basic_string@DU?$char_traits@D@std@@V?$allocator@D@2@@1@AAY00$$CBD@Z
	??$_Emplace_one_at_back@ABUPair@cpr@@@?$vector@UPair@cpr@@V?$allocator@UPair@cpr@@@std@@@std@@AAEAAUPair@cpr@@ABU23@@Z
	??$_Emplace_one_at_back@ABUParameter@cpr@@@?$vector@UParameter@cpr@@V?$allocator@UParameter@cpr@@@std@@@std@@AAEAAUParameter@cpr@@ABU23@@Z
	??$_Emplace_one_at_back@ABV?$basic_string@DU?$char_traits@D@std@@V?$allocator@D@2@@std@@@?$vector@V?$basic_string@DU?$char_traits@D@std@@V?$allocator@D@2@@std@@V?$allocator@V?$basic_string@DU?$char_traits@D@std@@V?$allocator@D@2@@std@@@2@@std@@AAEAAV?$basic_string@DU?$char_traits@D@std@@V?$allocator@D@2@@1@ABV21@@Z
	??$_Emplace_one_at_back@ABVCookie@cpr@@@?$vector@VCookie@cpr@@V?$allocator@VCookie@cpr@@@std@@@std@@AAEAAVCookie@cpr@@ABV23@@Z
	??$_Emplace_one_at_back@UPair@cpr@@@?$vector@UPair@cpr@@V?$allocator@UPair@cpr@@@std@@@std@@AAEAAUPair@cpr@@$$QAU23@@Z
	??$_Emplace_one_at_back@UParameter@cpr@@@?$vector@UParameter@cpr@@V?$allocator@UParameter@cpr@@@std@@@std@@AAEAAUParameter@cpr@@$$QAU23@@Z
	??$_Emplace_one_at_back@Ucurl_forms@@@?$vector@Ucurl_forms@@V?$allocator@Ucurl_forms@@@std@@@std@@AAEAAUcurl_forms@@$$QAU2@@Z
	??$_Emplace_one_at_back@V?$basic_string@DU?$char_traits@D@std@@V?$allocator@D@2@@std@@@?$vector@V?$basic_string@DU?$char_traits@D@std@@V?$allocator@D@2@@std@@V?$allocator@V?$basic_string@DU?$char_traits@D@std@@V?$allocator@D@2@@std@@@2@@std@@AAEAAV?$basic_string@DU?$char_traits@D@std@@V?$allocator@D@2@@1@$$QAV21@@Z
	??$_Emplace_reallocate@AAVCertInfo@cpr@@@?$vector@VCertInfo@cpr@@V?$allocator@VCertInfo@cpr@@@std@@@std@@AAEPAVCertInfo@cpr@@QAV23@AAV23@@Z
	??$_Emplace_reallocate@AAY00$$CBD@?$vector@V?$basic_string@DU?$char_traits@D@std@@V?$allocator@D@2@@std@@V?$allocator@V?$basic_string@DU?$char_traits@D@std@@V?$allocator@D@2@@std@@@2@@std@@AAEPAV?$basic_string@DU?$char_traits@D@std@@V?$allocator@D@2@@1@QAV21@AAY00$$CBD@Z
	??$_Emplace_reallocate@ABUPair@cpr@@@?$vector@UPair@cpr@@V?$allocator@UPair@cpr@@@std@@@std@@AAEPAUPair@cpr@@QAU23@ABU23@@Z
	??$_Emplace_reallocate@ABUParameter@cpr@@@?$vector@UParameter@cpr@@V?$allocator@UParameter@cpr@@@std@@@std@@AAEPAUParameter@cpr@@QAU23@ABU23@@Z
	??$_Emplace_reallocate@ABV?$basic_string@DU?$char_traits@D@std@@V?$allocator@D@2@@std@@@?$vector@V?$basic_string@DU?$char_traits@D@std@@V?$allocator@D@2@@std@@V?$allocator@V?$basic_string@DU?$char_traits@D@std@@V?$allocator@D@2@@std@@@2@@std@@AAEPAV?$basic_string@DU?$char_traits@D@std@@V?$allocator@D@2@@1@QAV21@ABV21@@Z
	??$_Emplace_reallocate@ABVCookie@cpr@@@?$vector@VCookie@cpr@@V?$allocator@VCookie@cpr@@@std@@@std@@AAEPAVCookie@cpr@@QAV23@ABV23@@Z
	??$_Emplace_reallocate@UPair@cpr@@@?$vector@UPair@cpr@@V?$allocator@UPair@cpr@@@std@@@std@@AAEPAUPair@cpr@@QAU23@$$QAU23@@Z
	??$_Emplace_reallocate@UParameter@cpr@@@?$vector@UParameter@cpr@@V?$allocator@UParameter@cpr@@@std@@@std@@AAEPAUParameter@cpr@@QAU23@$$QAU23@@Z
	??$_Emplace_reallocate@Ucurl_forms@@@?$vector@Ucurl_forms@@V?$allocator@Ucurl_forms@@@std@@@std@@AAEPAUcurl_forms@@QAU2@$$QAU2@@Z
	??$_Emplace_reallocate@V?$basic_string@DU?$char_traits@D@std@@V?$allocator@D@2@@std@@@?$vector@V?$basic_string@DU?$char_traits@D@std@@V?$allocator@D@2@@std@@V?$allocator@V?$basic_string@DU?$char_traits@D@std@@V?$allocator@D@2@@std@@@2@@std@@AAEPAV?$basic_string@DU?$char_traits@D@std@@V?$allocator@D@2@@1@QAV21@$$QAV21@@Z
	??$_Emplace_result@VResponse@cpr@@@?$_Associated_state@VResponse@cpr@@@std@@QAEX$$QAVResponse@cpr@@@Z
	??$_Erase_head@V?$allocator@U?$_Tree_node@U?$pair@$$CBV?$basic_string@DU?$char_traits@D@std@@V?$allocator@D@2@@std@@V12@@std@@PAX@std@@@std@@@?$_Tree_val@U?$_Tree_simple_types@U?$pair@$$CBV?$basic_string@DU?$char_traits@D@std@@V?$allocator@D@2@@std@@V12@@std@@@std@@@std@@QAEXAAV?$allocator@U?$_Tree_node@U?$pair@$$CBV?$basic_string@DU?$char_traits@D@std@@V?$allocator@D@2@@std@@V12@@std@@PAX@std@@@1@@Z
	??$_Erase_head@V?$allocator@U?$_Tree_node@U?$pair@$$CBV?$basic_string@DU?$char_traits@D@std@@V?$allocator@D@2@@std@@VEncodedAuthentication@cpr@@@std@@PAX@std@@@std@@@?$_Tree_val@U?$_Tree_simple_types@U?$pair@$$CBV?$basic_string@DU?$char_traits@D@std@@V?$allocator@D@2@@std@@VEncodedAuthentication@cpr@@@std@@@std@@@std@@QAEXAAV?$allocator@U?$_Tree_node@U?$pair@$$CBV?$basic_string@DU?$char_traits@D@std@@V?$allocator@D@2@@std@@VEncodedAuthentication@cpr@@@std@@PAX@std@@@1@@Z
	??$_Erase_head@V?$allocator@U?$_Tree_node@U?$pair@$$CBW4AcceptEncodingMethods@cpr@@V?$basic_string@DU?$char_traits@D@std@@V?$allocator@D@2@@std@@@std@@PAX@std@@@std@@@?$_Tree_val@U?$_Tree_simple_types@U?$pair@$$CBW4AcceptEncodingMethods@cpr@@V?$basic_string@DU?$char_traits@D@std@@V?$allocator@D@2@@std@@@std@@@std@@@std@@QAEXAAV?$allocator@U?$_Tree_node@U?$pair@$$CBW4AcceptEncodingMethods@cpr@@V?$basic_string@DU?$char_traits@D@std@@V?$allocator@D@2@@std@@@std@@PAX@std@@@1@@Z
	??$_Erase_tree@V?$allocator@U?$_Tree_node@U?$pair@$$CBV?$basic_string@DU?$char_traits@D@std@@V?$allocator@D@2@@std@@V12@@std@@PAX@std@@@std@@@?$_Tree_val@U?$_Tree_simple_types@U?$pair@$$CBV?$basic_string@DU?$char_traits@D@std@@V?$allocator@D@2@@std@@V12@@std@@@std@@@std@@QAEXAAV?$allocator@U?$_Tree_node@U?$pair@$$CBV?$basic_string@DU?$char_traits@D@std@@V?$allocator@D@2@@std@@V12@@std@@PAX@std@@@1@PAU?$_Tree_node@U?$pair@$$CBV?$basic_string@DU?$char_traits@D@std@@V?$allocator@D@2@@std@@V12@@std@@PAX@1@@Z
	??$_Erase_tree@V?$allocator@U?$_Tree_node@U?$pair@$$CBV?$basic_string@DU?$char_traits@D@std@@V?$allocator@D@2@@std@@VEncodedAuthentication@cpr@@@std@@PAX@std@@@std@@@?$_Tree_val@U?$_Tree_simple_types@U?$pair@$$CBV?$basic_string@DU?$char_traits@D@std@@V?$allocator@D@2@@std@@VEncodedAuthentication@cpr@@@std@@@std@@@std@@QAEXAAV?$allocator@U?$_Tree_node@U?$pair@$$CBV?$basic_string@DU?$char_traits@D@std@@V?$allocator@D@2@@std@@VEncodedAuthentication@cpr@@@std@@PAX@std@@@1@PAU?$_Tree_node@U?$pair@$$CBV?$basic_string@DU?$char_traits@D@std@@V?$allocator@D@2@@std@@VEncodedAuthentication@cpr@@@std@@PAX@1@@Z
	??$_Erase_tree@V?$allocator@U?$_Tree_node@U?$pair@$$CBW4AcceptEncodingMethods@cpr@@V?$basic_string@DU?$char_traits@D@std@@V?$allocator@D@2@@std@@@std@@PAX@std@@@std@@@?$_Tree_val@U?$_Tree_simple_types@U?$pair@$$CBW4AcceptEncodingMethods@cpr@@V?$basic_string@DU?$char_traits@D@std@@V?$allocator@D@2@@std@@@std@@@std@@@std@@QAEXAAV?$allocator@U?$_Tree_node@U?$pair@$$CBW4AcceptEncodingMethods@cpr@@V?$basic_string@DU?$char_traits@D@std@@V?$allocator@D@2@@std@@@std@@PAX@std@@@1@PAU?$_Tree_node@U?$pair@$$CBW4AcceptEncodingMethods@cpr@@V?$basic_string@DU?$char_traits@D@std@@V?$allocator@D@2@@std@@@std@@PAX@1@@Z
	??$_Erase_tree_and_orphan@V?$allocator@U?$_Tree_node@U?$pair@$$CBV?$basic_string@DU?$char_traits@D@std@@V?$allocator@D@2@@std@@V12@@std@@PAX@std@@@std@@@?$_Tree_val@U?$_Tree_simple_types@U?$pair@$$CBV?$basic_string@DU?$char_traits@D@std@@V?$allocator@D@2@@std@@V12@@std@@@std@@@std@@QAEXAAV?$allocator@U?$_Tree_node@U?$pair@$$CBV?$basic_string@DU?$char_traits@D@std@@V?$allocator@D@2@@std@@V12@@std@@PAX@std@@@1@PAU?$_Tree_node@U?$pair@$$CBV?$basic_string@DU?$char_traits@D@std@@V?$allocator@D@2@@std@@V12@@std@@PAX@1@@Z
	??$_Erase_tree_and_orphan@V?$allocator@U?$_Tree_node@U?$pair@$$CBV?$basic_string@DU?$char_traits@D@std@@V?$allocator@D@2@@std@@VEncodedAuthentication@cpr@@@std@@PAX@std@@@std@@@?$_Tree_val@U?$_Tree_simple_types@U?$pair@$$CBV?$basic_string@DU?$char_traits@D@std@@V?$allocator@D@2@@std@@VEncodedAuthentication@cpr@@@std@@@std@@@std@@QAEXAAV?$allocator@U?$_Tree_node@U?$pair@$$CBV?$basic_string@DU?$char_traits@D@std@@V?$allocator@D@2@@std@@VEncodedAuthentication@cpr@@@std@@PAX@std@@@1@PAU?$_Tree_node@U?$pair@$$CBV?$basic_string@DU?$char_traits@D@std@@V?$allocator@D@2@@std@@VEncodedAuthentication@cpr@@@std@@PAX@1@@Z
	??$_Find@V?$basic_string@DU?$char_traits@D@std@@V?$allocator@D@2@@std@@@?$_Tree@V?$_Tmap_traits@V?$basic_string@DU?$char_traits@D@std@@V?$allocator@D@2@@std@@V12@UCaseInsensitiveCompare@cpr@@V?$allocator@U?$pair@$$CBV?$basic_string@DU?$char_traits@D@std@@V?$allocator@D@2@@std@@V12@@std@@@2@$0A@@std@@@std@@ABEPAU?$_Tree_node@U?$pair@$$CBV?$basic_string@DU?$char_traits@D@std@@V?$allocator@D@2@@std@@V12@@std@@PAX@1@ABV?$basic_string@DU?$char_traits@D@std@@V?$allocator@D@2@@1@@Z
	??$_Find_hint@V?$basic_string@DU?$char_traits@D@std@@V?$allocator@D@2@@std@@@?$_Tree@V?$_Tmap_traits@V?$basic_string@DU?$char_traits@D@std@@V?$allocator@D@2@@std@@V12@U?$less@V?$basic_string@DU?$char_traits@D@std@@V?$allocator@D@2@@std@@@2@V?$allocator@U?$pair@$$CBV?$basic_string@DU?$char_traits@D@std@@V?$allocator@D@2@@std@@V12@@std@@@2@$0A@@std@@@std@@IBE?AU?$_Tree_find_hint_result@PAU?$_Tree_node@U?$pair@$$CBV?$basic_string@DU?$char_traits@D@std@@V?$allocator@D@2@@std@@V12@@std@@PAX@std@@@1@QAU?$_Tree_node@U?$pair@$$CBV?$basic_string@DU?$char_traits@D@std@@V?$allocator@D@2@@std@@V12@@std@@PAX@1@ABV?$basic_string@DU?$char_traits@D@std@@V?$allocator@D@2@@1@@Z
	??$_Find_hint@W4AcceptEncodingMethods@cpr@@@?$_Tree@V?$_Tmap_traits@W4AcceptEncodingMethods@cpr@@V?$basic_string@DU?$char_traits@D@std@@V?$allocator@D@2@@std@@U?$less@W4AcceptEncodingMethods@cpr@@@4@V?$allocator@U?$pair@$$CBW4AcceptEncodingMethods@cpr@@V?$basic_string@DU?$char_traits@D@std@@V?$allocator@D@2@@std@@@std@@@4@$0A@@std@@@std@@IBE?AU?$_Tree_find_hint_result@PAU?$_Tree_node@U?$pair@$$CBW4AcceptEncodingMethods@cpr@@V?$basic_string@DU?$char_traits@D@std@@V?$allocator@D@2@@std@@@std@@PAX@std@@@1@QAU?$_Tree_node@U?$pair@$$CBW4AcceptEncodingMethods@cpr@@V?$basic_string@DU?$char_traits@D@std@@V?$allocator@D@2@@std@@@std@@PAX@1@ABW4AcceptEncodingMethods@cpr@@@Z
	??$_Find_lower_bound@V?$basic_string@DU?$char_traits@D@std@@V?$allocator@D@2@@std@@@?$_Tree@V?$_Tmap_traits@V?$basic_string@DU?$char_traits@D@std@@V?$allocator@D@2@@std@@V12@U?$less@V?$basic_string@DU?$char_traits@D@std@@V?$allocator@D@2@@std@@@2@V?$allocator@U?$pair@$$CBV?$basic_string@DU?$char_traits@D@std@@V?$allocator@D@2@@std@@V12@@std@@@2@$0A@@std@@@std@@IBE?AU?$_Tree_find_result@PAU?$_Tree_node@U?$pair@$$CBV?$basic_string@DU?$char_traits@D@std@@V?$allocator@D@2@@std@@V12@@std@@PAX@std@@@1@ABV?$basic_string@DU?$char_traits@D@std@@V?$allocator@D@2@@1@@Z
	??$_Find_lower_bound@V?$basic_string@DU?$char_traits@D@std@@V?$allocator@D@2@@std@@@?$_Tree@V?$_Tmap_traits@V?$basic_string@DU?$char_traits@D@std@@V?$allocator@D@2@@std@@V12@UCaseInsensitiveCompare@cpr@@V?$allocator@U?$pair@$$CBV?$basic_string@DU?$char_traits@D@std@@V?$allocator@D@2@@std@@V12@@std@@@2@$0A@@std@@@std@@IBE?AU?$_Tree_find_result@PAU?$_Tree_node@U?$pair@$$CBV?$basic_string@DU?$char_traits@D@std@@V?$allocator@D@2@@std@@V12@@std@@PAX@std@@@1@ABV?$basic_string@DU?$char_traits@D@std@@V?$allocator@D@2@@1@@Z
	??$_Find_lower_bound@V?$basic_string@DU?$char_traits@D@std@@V?$allocator@D@2@@std@@@?$_Tree@V?$_Tmap_traits@V?$basic_string@DU?$char_traits@D@std@@V?$allocator@D@2@@std@@VEncodedAuthentication@cpr@@U?$less@V?$basic_string@DU?$char_traits@D@std@@V?$allocator@D@2@@std@@@2@V?$allocator@U?$pair@$$CBV?$basic_string@DU?$char_traits@D@std@@V?$allocator@D@2@@std@@VEncodedAuthentication@cpr@@@std@@@2@$0A@@std@@@std@@IBE?AU?$_Tree_find_result@PAU?$_Tree_node@U?$pair@$$CBV?$basic_string@DU?$char_traits@D@std@@V?$allocator@D@2@@std@@VEncodedAuthentication@cpr@@@std@@PAX@std@@@1@ABV?$basic_string@DU?$char_traits@D@std@@V?$allocator@D@2@@1@@Z
	??$_Find_lower_bound@W4AcceptEncodingMethods@cpr@@@?$_Tree@V?$_Tmap_traits@W4AcceptEncodingMethods@cpr@@V?$basic_string@DU?$char_traits@D@std@@V?$allocator@D@2@@std@@U?$less@W4AcceptEncodingMethods@cpr@@@4@V?$allocator@U?$pair@$$CBW4AcceptEncodingMethods@cpr@@V?$basic_string@DU?$char_traits@D@std@@V?$allocator@D@2@@std@@@std@@@4@$0A@@std@@@std@@IBE?AU?$_Tree_find_result@PAU?$_Tree_node@U?$pair@$$CBW4AcceptEncodingMethods@cpr@@V?$basic_string@DU?$char_traits@D@std@@V?$allocator@D@2@@std@@@std@@PAX@std@@@1@ABW4AcceptEncodingMethods@cpr@@@Z
	??$_Free_non_head@V?$allocator@U?$_List_node@UThreadData@ThreadPool@cpr@@PAX@std@@@std@@@?$_List_node@UThreadData@ThreadPool@cpr@@PAX@std@@SAXAAV?$allocator@U?$_List_node@UThreadData@ThreadPool@cpr@@PAX@std@@@1@PAU01@@Z
	??$_Freenode0@V?$allocator@U?$_List_node@UThreadData@ThreadPool@cpr@@PAX@std@@@std@@@?$_List_node@UThreadData@ThreadPool@cpr@@PAX@std@@SAXAAV?$allocator@U?$_List_node@UThreadData@ThreadPool@cpr@@PAX@std@@@1@PAU01@@Z
	??$_Freenode0@V?$allocator@U?$_Tree_node@U?$pair@$$CBV?$basic_string@DU?$char_traits@D@std@@V?$allocator@D@2@@std@@V12@@std@@PAX@std@@@std@@@?$_Tree_node@U?$pair@$$CBV?$basic_string@DU?$char_traits@D@std@@V?$allocator@D@2@@std@@V12@@std@@PAX@std@@SAXAAV?$allocator@U?$_Tree_node@U?$pair@$$CBV?$basic_string@DU?$char_traits@D@std@@V?$allocator@D@2@@std@@V12@@std@@PAX@std@@@1@PAU01@@Z
	??$_Freenode0@V?$allocator@U?$_Tree_node@U?$pair@$$CBV?$basic_string@DU?$char_traits@D@std@@V?$allocator@D@2@@std@@VEncodedAuthentication@cpr@@@std@@PAX@std@@@std@@@?$_Tree_node@U?$pair@$$CBV?$basic_string@DU?$char_traits@D@std@@V?$allocator@D@2@@std@@VEncodedAuthentication@cpr@@@std@@PAX@std@@SAXAAV?$allocator@U?$_Tree_node@U?$pair@$$CBV?$basic_string@DU?$char_traits@D@std@@V?$allocator@D@2@@std@@VEncodedAuthentication@cpr@@@std@@PAX@std@@@1@PAU01@@Z
	??$_Freenode0@V?$allocator@U?$_Tree_node@U?$pair@$$CBW4AcceptEncodingMethods@cpr@@V?$basic_string@DU?$char_traits@D@std@@V?$allocator@D@2@@std@@@std@@PAX@std@@@std@@@?$_Tree_node@U?$pair@$$CBW4AcceptEncodingMethods@cpr@@V?$basic_string@DU?$char_traits@D@std@@V?$allocator@D@2@@std@@@std@@PAX@std@@SAXAAV?$allocator@U?$_Tree_node@U?$pair@$$CBW4AcceptEncodingMethods@cpr@@V?$basic_string@DU?$char_traits@D@std@@V?$allocator@D@2@@std@@@std@@PAX@std@@@1@PAU01@@Z
	??$_Freenode@V?$allocator@U?$_List_node@UThreadData@ThreadPool@cpr@@PAX@std@@@std@@@?$_List_node@UThreadData@ThreadPool@cpr@@PAX@std@@SAXAAV?$allocator@U?$_List_node@UThreadData@ThreadPool@cpr@@PAX@std@@@1@PAU01@@Z
	??$_Freenode@V?$allocator@U?$_Tree_node@U?$pair@$$CBV?$basic_string@DU?$char_traits@D@std@@V?$allocator@D@2@@std@@V12@@std@@PAX@std@@@std@@@?$_Tree_node@U?$pair@$$CBV?$basic_string@DU?$char_traits@D@std@@V?$allocator@D@2@@std@@V12@@std@@PAX@std@@SAXAAV?$allocator@U?$_Tree_node@U?$pair@$$CBV?$basic_string@DU?$char_traits@D@std@@V?$allocator@D@2@@std@@V12@@std@@PAX@std@@@1@PAU01@@Z
	??$_Freenode@V?$allocator@U?$_Tree_node@U?$pair@$$CBV?$basic_string@DU?$char_traits@D@std@@V?$allocator@D@2@@std@@VEncodedAuthentication@cpr@@@std@@PAX@std@@@std@@@?$_Tree_node@U?$pair@$$CBV?$basic_string@DU?$char_traits@D@std@@V?$allocator@D@2@@std@@VEncodedAuthentication@cpr@@@std@@PAX@std@@SAXAAV?$allocator@U?$_Tree_node@U?$pair@$$CBV?$basic_string@DU?$char_traits@D@std@@V?$allocator@D@2@@std@@VEncodedAuthentication@cpr@@@std@@PAX@std@@@1@PAU01@@Z
	??$_Freenode@V?$allocator@U?$_Tree_node@U?$pair@$$CBW4AcceptEncodingMethods@cpr@@V?$basic_string@DU?$char_traits@D@std@@V?$allocator@D@2@@std@@@std@@PAX@std@@@std@@@?$_Tree_node@U?$pair@$$CBW4AcceptEncodingMethods@cpr@@V?$basic_string@DU?$char_traits@D@std@@V?$allocator@D@2@@std@@@std@@PAX@std@@SAXAAV?$allocator@U?$_Tree_node@U?$pair@$$CBW4AcceptEncodingMethods@cpr@@V?$basic_string@DU?$char_traits@D@std@@V?$allocator@D@2@@std@@@std@@PAX@std@@@1@PAU01@@Z
	??$_Get_size_of_n@$00@std@@YAII@Z
	??$_Get_size_of_n@$03@std@@YAII@Z
	??$_Get_size_of_n@$07@std@@YAII@Z
	??$_Get_size_of_n@$0BA@@std@@YAII@Z
	??$_Get_size_of_n@$0BM@@std@@YAII@Z
	??$_Get_size_of_n@$0CI@@std@@YAII@Z
	??$_Get_size_of_n@$0DA@@std@@YAII@Z
	??$_Get_size_of_n@$0DI@@std@@YAII@Z
	??$_Get_size_of_n@$0EI@@std@@YAII@Z
	??$_Get_size_of_n@$0EM@@std@@YAII@Z
	??$_Get_size_of_n@$0HM@@std@@YAII@Z
	??$_Get_size_of_n@$0IA@@std@@YAII@Z
	??$_Get_unwrapped@AAPAD@std@@YA?A_TAAPAD@Z
	??$_Get_unwrapped@AAPAUParameter@cpr@@@std@@YA?A_TAAPAUParameter@cpr@@@Z
	??$_Get_unwrapped@AAPAV?$basic_string@DU?$char_traits@D@std@@V?$allocator@D@2@@std@@@std@@YA?A_TAAPAV?$basic_string@DU?$char_traits@D@std@@V?$allocator@D@2@@0@@Z
	??$_Get_unwrapped@AAPBU?$pair@$$CBV?$basic_string@DU?$char_traits@D@std@@V?$allocator@D@2@@std@@V12@@std@@@std@@YA?A_TAAPBU?$pair@$$CBV?$basic_string@DU?$char_traits@D@std@@V?$allocator@D@2@@std@@V12@@0@@Z
	??$_Get_unwrapped@AAPBU?$pair@$$CBW4AcceptEncodingMethods@cpr@@V?$basic_string@DU?$char_traits@D@std@@V?$allocator@D@2@@std@@@std@@@std@@YA?A_TAAPBU?$pair@$$CBW4AcceptEncodingMethods@cpr@@V?$basic_string@DU?$char_traits@D@std@@V?$allocator@D@2@@std@@@0@@Z
	??$_Get_unwrapped@ABQAPAV?$function@$$A6AXXZ@std@@@std@@YA?A_TABQAPAV?$function@$$A6AXXZ@0@@Z
	??$_Get_unwrapped@ABQAPAV?$shared_ptr@VInterceptor@cpr@@@std@@@std@@YA?A_TABQAPAV?$shared_ptr@VInterceptor@cpr@@@0@@Z
	??$_Get_unwrapped@ABQAUPair@cpr@@@std@@YA?A_TABQAUPair@cpr@@@Z
	??$_Get_unwrapped@ABQAUParameter@cpr@@@std@@YA?A_TABQAUParameter@cpr@@@Z
	??$_Get_unwrapped@ABQAUcurl_forms@@@std@@YA?A_TABQAUcurl_forms@@@Z
	??$_Get_unwrapped@ABQAV?$basic_string@DU?$char_traits@D@std@@V?$allocator@D@2@@std@@@std@@YA?A_TABQAV?$basic_string@DU?$char_traits@D@std@@V?$allocator@D@2@@0@@Z
	??$_Get_unwrapped@ABQAVCertInfo@cpr@@@std@@YA?A_TABQAVCertInfo@cpr@@@Z
	??$_Get_unwrapped@ABQAVCookie@cpr@@@std@@YA?A_TABQAVCookie@cpr@@@Z
	??$_Get_unwrapped@ABQBUPair@cpr@@@std@@YA?A_TABQBUPair@cpr@@@Z
	??$_Get_unwrapped@ABQBUParameter@cpr@@@std@@YA?A_TABQBUParameter@cpr@@@Z
	??$_Get_unwrapped@ABQBUPart@cpr@@@std@@YA?A_TABQBUPart@cpr@@@Z
	??$_Get_unwrapped@ABQBV?$basic_string@DU?$char_traits@D@std@@V?$allocator@D@2@@std@@@std@@YA?A_TABQBV?$basic_string@DU?$char_traits@D@std@@V?$allocator@D@2@@0@@Z
	??$_Get_unwrapped@ABQBW4AcceptEncodingMethods@cpr@@@std@@YA?A_TABQBW4AcceptEncodingMethods@cpr@@@Z
	??$_Get_unwrapped@ABV?$_String_const_iterator@V?$_String_val@U?$_Simple_types@D@std@@@std@@@std@@@std@@YA?A_TABV?$_String_const_iterator@V?$_String_val@U?$_Simple_types@D@std@@@std@@@0@@Z
	??$_Get_unwrapped@ABV?$_String_iterator@V?$_String_val@U?$_Simple_types@D@std@@@std@@@std@@@std@@YA?A_TABV?$_String_iterator@V?$_String_val@U?$_Simple_types@D@std@@@std@@@0@@Z
	??$_Get_unwrapped@ABV?$_Vector_const_iterator@V?$_Vector_val@U?$_Simple_types@V?$basic_string@DU?$char_traits@D@std@@V?$allocator@D@2@@std@@@std@@@std@@@std@@@std@@YA?A_TABV?$_Vector_const_iterator@V?$_Vector_val@U?$_Simple_types@V?$basic_string@DU?$char_traits@D@std@@V?$allocator@D@2@@std@@@std@@@std@@@0@@Z
	??$_Get_unwrapped_n@AAPAPAV?$function@$$A6AXXZ@std@@H@std@@YA?A_TAAPAPAV?$function@$$A6AXXZ@0@H@Z
	??$_Get_unwrapped_n@AAPAPAV?$shared_ptr@VInterceptor@cpr@@@std@@H@std@@YA?A_TAAPAPAV?$shared_ptr@VInterceptor@cpr@@@0@H@Z
	??$_Get_unwrapped_n@AAV?$_String_iterator@V?$_String_val@U?$_Simple_types@D@std@@@std@@@std@@H@std@@YA?A_TAAV?$_String_iterator@V?$_String_val@U?$_Simple_types@D@std@@@std@@@0@H@Z
	??$_Get_unwrapped_n@AAV?$back_insert_iterator@V?$vector@UPair@cpr@@V?$allocator@UPair@cpr@@@std@@@std@@@std@@H@std@@YA?A_TAAV?$back_insert_iterator@V?$vector@UPair@cpr@@V?$allocator@UPair@cpr@@@std@@@std@@@0@H@Z
	??$_Get_unwrapped_n@AAV?$back_insert_iterator@V?$vector@UParameter@cpr@@V?$allocator@UParameter@cpr@@@std@@@std@@@std@@H@std@@YA?A_TAAV?$back_insert_iterator@V?$vector@UParameter@cpr@@V?$allocator@UParameter@cpr@@@std@@@std@@@0@H@Z
	??$_Get_unwrapped_n@AAV?$back_insert_iterator@V?$vector@V?$basic_string@DU?$char_traits@D@std@@V?$allocator@D@2@@std@@V?$allocator@V?$basic_string@DU?$char_traits@D@std@@V?$allocator@D@2@@std@@@2@@std@@@std@@H@std@@YA?A_TAAV?$back_insert_iterator@V?$vector@V?$basic_string@DU?$char_traits@D@std@@V?$allocator@D@2@@std@@V?$allocator@V?$basic_string@DU?$char_traits@D@std@@V?$allocator@D@2@@std@@@2@@std@@@0@H@Z
	??$_Getvals@_W@?$time_get@DV?$istreambuf_iterator@DU?$char_traits@D@std@@@std@@@std@@IAEX_WABV_Locinfo@1@@Z
	??$_Getvals@_W@?$time_get@_WV?$istreambuf_iterator@_WU?$char_traits@_W@std@@@std@@@std@@IAEX_WABV_Locinfo@1@@Z
	??$_Idl_distance@PAPAV?$function@$$A6AXXZ@std@@PAPAV12@@std@@YA?A_PABQAPAV?$function@$$A6AXXZ@0@0@Z
	??$_Idl_distance@PAPAV?$shared_ptr@VInterceptor@cpr@@@std@@PAPAV12@@std@@YA?A_PABQAPAV?$shared_ptr@VInterceptor@cpr@@@0@0@Z
	??$_Idl_distance@PBUPair@cpr@@PBU12@@std@@YA?A_PABQBUPair@cpr@@0@Z
	??$_Idl_distance@PBUParameter@cpr@@PBU12@@std@@YA?A_PABQBUParameter@cpr@@0@Z
	??$_Idl_distance@PBW4AcceptEncodingMethods@cpr@@PBW412@@std@@YA?A_PABQBW4AcceptEncodingMethods@cpr@@0@Z
	??$_Idl_distance@V?$_String_iterator@V?$_String_val@U?$_Simple_types@D@std@@@std@@@std@@PAD@std@@YA?A_PABQAD0@Z
	??$_Immortalize_memcpy_image@V_Future_error_category2@std@@@std@@YAABV_Future_error_category2@0@XZ
	??$_Insert_string@DU?$char_traits@D@std@@I@std@@YAAAV?$basic_ostream@DU?$char_traits@D@std@@@0@AAV10@QBDI@Z
	??$_Integral_to_string@D_J@std@@YA?AV?$basic_string@DU?$char_traits@D@std@@V?$allocator@D@2@@0@_J@Z
	??$_Kfn@$$CBV?$basic_string@DU?$char_traits@D@std@@V?$allocator@D@2@@std@@V12@@?$_Tmap_traits@V?$basic_string@DU?$char_traits@D@std@@V?$allocator@D@2@@std@@V12@U?$less@V?$basic_string@DU?$char_traits@D@std@@V?$allocator@D@2@@std@@@2@V?$allocator@U?$pair@$$CBV?$basic_string@DU?$char_traits@D@std@@V?$allocator@D@2@@std@@V12@@std@@@2@$0A@@std@@SAABV?$basic_string@DU?$char_traits@D@std@@V?$allocator@D@2@@1@ABU?$pair@$$CBV?$basic_string@DU?$char_traits@D@std@@V?$allocator@D@2@@std@@V12@@1@@Z
	??$_Kfn@$$CBV?$basic_string@DU?$char_traits@D@std@@V?$allocator@D@2@@std@@V12@@?$_Tmap_traits@V?$basic_string@DU?$char_traits@D@std@@V?$allocator@D@2@@std@@V12@UCaseInsensitiveCompare@cpr@@V?$allocator@U?$pair@$$CBV?$basic_string@DU?$char_traits@D@std@@V?$allocator@D@2@@std@@V12@@std@@@2@$0A@@std@@SAABV?$basic_string@DU?$char_traits@D@std@@V?$allocator@D@2@@1@ABU?$pair@$$CBV?$basic_string@DU?$char_traits@D@std@@V?$allocator@D@2@@std@@V12@@1@@Z
	??$_Kfn@$$CBV?$basic_string@DU?$char_traits@D@std@@V?$allocator@D@2@@std@@VEncodedAuthentication@cpr@@@?$_Tmap_traits@V?$basic_string@DU?$char_traits@D@std@@V?$allocator@D@2@@std@@VEncodedAuthentication@cpr@@U?$less@V?$basic_string@DU?$char_traits@D@std@@V?$allocator@D@2@@std@@@2@V?$allocator@U?$pair@$$CBV?$basic_string@DU?$char_traits@D@std@@V?$allocator@D@2@@std@@VEncodedAuthentication@cpr@@@std@@@2@$0A@@std@@SAABV?$basic_string@DU?$char_traits@D@std@@V?$allocator@D@2@@1@ABU?$pair@$$CBV?$basic_string@DU?$char_traits@D@std@@V?$allocator@D@2@@std@@VEncodedAuthentication@cpr@@@1@@Z
	??$_Kfn@$$CBW4AcceptEncodingMethods@cpr@@V?$basic_string@DU?$char_traits@D@std@@V?$allocator@D@2@@std@@@?$_Tmap_traits@W4AcceptEncodingMethods@cpr@@V?$basic_string@DU?$char_traits@D@std@@V?$allocator@D@2@@std@@U?$less@W4AcceptEncodingMethods@cpr@@@4@V?$allocator@U?$pair@$$CBW4AcceptEncodingMethods@cpr@@V?$basic_string@DU?$char_traits@D@std@@V?$allocator@D@2@@std@@@std@@@4@$0A@@std@@SAABW4AcceptEncodingMethods@cpr@@ABU?$pair@$$CBW4AcceptEncodingMethods@cpr@@V?$basic_string@DU?$char_traits@D@std@@V?$allocator@D@2@@std@@@1@@Z
	??$_Lower_bound_duplicate@V?$basic_string@DU?$char_traits@D@std@@V?$allocator@D@2@@std@@@?$_Tree@V?$_Tmap_traits@V?$basic_string@DU?$char_traits@D@std@@V?$allocator@D@2@@std@@V12@U?$less@V?$basic_string@DU?$char_traits@D@std@@V?$allocator@D@2@@std@@@2@V?$allocator@U?$pair@$$CBV?$basic_string@DU?$char_traits@D@std@@V?$allocator@D@2@@std@@V12@@std@@@2@$0A@@std@@@std@@IBE_NQAU?$_Tree_node@U?$pair@$$CBV?$basic_string@DU?$char_traits@D@std@@V?$allocator@D@2@@std@@V12@@std@@PAX@1@ABV?$basic_string@DU?$char_traits@D@std@@V?$allocator@D@2@@1@@Z
	??$_Lower_bound_duplicate@V?$basic_string@DU?$char_traits@D@std@@V?$allocator@D@2@@std@@@?$_Tree@V?$_Tmap_traits@V?$basic_string@DU?$char_traits@D@std@@V?$allocator@D@2@@std@@V12@UCaseInsensitiveCompare@cpr@@V?$allocator@U?$pair@$$CBV?$basic_string@DU?$char_traits@D@std@@V?$allocator@D@2@@std@@V12@@std@@@2@$0A@@std@@@std@@IBE_NQAU?$_Tree_node@U?$pair@$$CBV?$basic_string@DU?$char_traits@D@std@@V?$allocator@D@2@@std@@V12@@std@@PAX@1@ABV?$basic_string@DU?$char_traits@D@std@@V?$allocator@D@2@@1@@Z
	??$_Lower_bound_duplicate@V?$basic_string@DU?$char_traits@D@std@@V?$allocator@D@2@@std@@@?$_Tree@V?$_Tmap_traits@V?$basic_string@DU?$char_traits@D@std@@V?$allocator@D@2@@std@@VEncodedAuthentication@cpr@@U?$less@V?$basic_string@DU?$char_traits@D@std@@V?$allocator@D@2@@std@@@2@V?$allocator@U?$pair@$$CBV?$basic_string@DU?$char_traits@D@std@@V?$allocator@D@2@@std@@VEncodedAuthentication@cpr@@@std@@@2@$0A@@std@@@std@@IBE_NQAU?$_Tree_node@U?$pair@$$CBV?$basic_string@DU?$char_traits@D@std@@V?$allocator@D@2@@std@@VEncodedAuthentication@cpr@@@std@@PAX@1@ABV?$basic_string@DU?$char_traits@D@std@@V?$allocator@D@2@@1@@Z
	??$_Lower_bound_duplicate@W4AcceptEncodingMethods@cpr@@@?$_Tree@V?$_Tmap_traits@W4AcceptEncodingMethods@cpr@@V?$basic_string@DU?$char_traits@D@std@@V?$allocator@D@2@@std@@U?$less@W4AcceptEncodingMethods@cpr@@@4@V?$allocator@U?$pair@$$CBW4AcceptEncodingMethods@cpr@@V?$basic_string@DU?$char_traits@D@std@@V?$allocator@D@2@@std@@@std@@@4@$0A@@std@@@std@@IBE_NQAU?$_Tree_node@U?$pair@$$CBW4AcceptEncodingMethods@cpr@@V?$basic_string@DU?$char_traits@D@std@@V?$allocator@D@2@@std@@@std@@PAX@1@ABW4AcceptEncodingMethods@cpr@@@Z
	??$_Maklocstr@D@std@@YAPADPBDPADABU_Cvtvec@@@Z
	??$_Maklocstr@_W@std@@YAPA_WPBDPA_WABU_Cvtvec@@@Z
	??$_Move_construct_from@UCurlHolder@cpr@@@?$_Ptr_base@UCurlHolder@cpr@@@std@@IAEX$$QAV01@@Z
	??$_Move_construct_from@V?$packaged_task@$$A6A?AVResponse@cpr@@XZ@std@@@?$_Ptr_base@V?$packaged_task@$$A6A?AVResponse@cpr@@XZ@std@@@std@@IAEX$$QAV01@@Z
	??$_Move_construct_from@VSession@cpr@@@?$_Ptr_base@VSession@cpr@@@std@@IAEX$$QAV01@@Z
	??$_Move_construct_from@Vthread@std@@@?$_Ptr_base@Vthread@std@@@std@@IAEX$$QAV01@@Z
	??$_Pocca@V?$allocator@D@std@@@std@@YAXAAV?$allocator@D@0@ABV10@@Z
	??$_Pocca@V?$allocator@U?$_Tree_node@U?$pair@$$CBV?$basic_string@DU?$char_traits@D@std@@V?$allocator@D@2@@std@@V12@@std@@PAX@std@@@std@@@std@@YAXAAV?$allocator@U?$_Tree_node@U?$pair@$$CBV?$basic_string@DU?$char_traits@D@std@@V?$allocator@D@2@@std@@V12@@std@@PAX@std@@@0@ABV10@@Z
	??$_Pocca@V?$allocator@U?$_Tree_node@U?$pair@$$CBV?$basic_string@DU?$char_traits@D@std@@V?$allocator@D@2@@std@@VEncodedAuthentication@cpr@@@std@@PAX@std@@@std@@@std@@YAXAAV?$allocator@U?$_Tree_node@U?$pair@$$CBV?$basic_string@DU?$char_traits@D@std@@V?$allocator@D@2@@std@@VEncodedAuthentication@cpr@@@std@@PAX@std@@@0@ABV10@@Z
	??$_Pocca@V?$allocator@UParameter@cpr@@@std@@@std@@YAXAAV?$allocator@UParameter@cpr@@@0@ABV10@@Z
	??$_Pocca@V?$allocator@V?$basic_string@DU?$char_traits@D@std@@V?$allocator@D@2@@std@@@std@@@std@@YAXAAV?$allocator@V?$basic_string@DU?$char_traits@D@std@@V?$allocator@D@2@@std@@@0@ABV10@@Z
	??$_Pocma@V?$allocator@D@std@@@std@@YAXAAV?$allocator@D@0@0@Z
	??$_Pocma@V?$allocator@U?$_Tree_node@U?$pair@$$CBV?$basic_string@DU?$char_traits@D@std@@V?$allocator@D@2@@std@@V12@@std@@PAX@std@@@std@@@std@@YAXAAV?$allocator@U?$_Tree_node@U?$pair@$$CBV?$basic_string@DU?$char_traits@D@std@@V?$allocator@D@2@@std@@V12@@std@@PAX@std@@@0@0@Z
	??$_Pocma@V?$allocator@U?$_Tree_node@U?$pair@$$CBV?$basic_string@DU?$char_traits@D@std@@V?$allocator@D@2@@std@@VEncodedAuthentication@cpr@@@std@@PAX@std@@@std@@@std@@YAXAAV?$allocator@U?$_Tree_node@U?$pair@$$CBV?$basic_string@DU?$char_traits@D@std@@V?$allocator@D@2@@std@@VEncodedAuthentication@cpr@@@std@@PAX@std@@@0@0@Z
	??$_Pocma@V?$allocator@UParameter@cpr@@@std@@@std@@YAXAAV?$allocator@UParameter@cpr@@@0@0@Z
	??$_Pocma@V?$allocator@V?$basic_string@DU?$char_traits@D@std@@V?$allocator@D@2@@std@@@std@@@std@@YAXAAV?$allocator@V?$basic_string@DU?$char_traits@D@std@@V?$allocator@D@2@@std@@@0@0@Z
	??$_Pocma@V?$allocator@VCookie@cpr@@@std@@@std@@YAXAAV?$allocator@VCookie@cpr@@@0@0@Z
	??$_Reallocate_for@V<lambda_9366063389c5f42a00a5088cf24e69de>@@PBD@?$basic_string@DU?$char_traits@D@std@@V?$allocator@D@2@@std@@AAEAAV01@IV<lambda_9366063389c5f42a00a5088cf24e69de>@@PBD@Z
	??$_Reallocate_grow_by@V<lambda_15711c68e099a15a58f4d77303cb286d>@@D@?$basic_string@DU?$char_traits@D@std@@V?$allocator@D@2@@std@@AAEAAV01@IV<lambda_15711c68e099a15a58f4d77303cb286d>@@D@Z
	??$_Reallocate_grow_by@V<lambda_4d79bb85f269e6e8002a4599002d832c>@@IPBDI@?$basic_string@DU?$char_traits@D@std@@V?$allocator@D@2@@std@@AAEAAV01@IV<lambda_4d79bb85f269e6e8002a4599002d832c>@@IPBDI@Z
	??$_Reallocate_grow_by@V<lambda_67d87d4aa1269033985980465fd1d824>@@$$V@?$basic_string@DU?$char_traits@D@std@@V?$allocator@D@2@@std@@AAEAAV01@IV<lambda_67d87d4aa1269033985980465fd1d824>@@@Z
	??$_Reallocate_grow_by@V<lambda_ab246b20b9526e2ef7792587e4298a77>@@PBDI@?$basic_string@DU?$char_traits@D@std@@V?$allocator@D@2@@std@@AAEAAV01@IV<lambda_ab246b20b9526e2ef7792587e4298a77>@@PBDI@Z
	??$_Reallocate_grow_by@V<lambda_c1b8c41cb4019640539cfd828748c4d4>@@ID@?$basic_string@DU?$char_traits@D@std@@V?$allocator@D@2@@std@@AAEAAV01@IV<lambda_c1b8c41cb4019640539cfd828748c4d4>@@ID@Z
	??$_Refancy@PAD$0A@@std@@YAPADPAD@Z
	??$_Refancy@PBD$0A@@std@@YAPBDPBD@Z
	??$_Seek_wrapped@PAPAV?$function@$$A6AXXZ@std@@PAPAV12@@std@@YAXAAPAPAV?$function@$$A6AXXZ@0@$$QAPAPAV10@@Z
	??$_Seek_wrapped@PAPAV?$shared_ptr@VInterceptor@cpr@@@std@@PAPAV12@@std@@YAXAAPAPAV?$shared_ptr@VInterceptor@cpr@@@0@$$QAPAPAV10@@Z
	??$_Seek_wrapped@V?$_String_iterator@V?$_String_val@U?$_Simple_types@D@std@@@std@@@std@@AAPAD@std@@YAXAAV?$_String_iterator@V?$_String_val@U?$_Simple_types@D@std@@@std@@@0@AAPAD@Z
	??$_Seek_wrapped@V?$back_insert_iterator@V?$vector@UPair@cpr@@V?$allocator@UPair@cpr@@@std@@@std@@@std@@AAV12@@std@@YAXAAV?$back_insert_iterator@V?$vector@UPair@cpr@@V?$allocator@UPair@cpr@@@std@@@std@@@0@0@Z
	??$_Seek_wrapped@V?$back_insert_iterator@V?$vector@UParameter@cpr@@V?$allocator@UParameter@cpr@@@std@@@std@@@std@@AAV12@@std@@YAXAAV?$back_insert_iterator@V?$vector@UParameter@cpr@@V?$allocator@UParameter@cpr@@@std@@@std@@@0@0@Z
	??$_Seek_wrapped@V?$back_insert_iterator@V?$vector@V?$basic_string@DU?$char_traits@D@std@@V?$allocator@D@2@@std@@V?$allocator@V?$basic_string@DU?$char_traits@D@std@@V?$allocator@D@2@@std@@@2@@std@@@std@@AAV12@@std@@YAXAAV?$back_insert_iterator@V?$vector@V?$basic_string@DU?$char_traits@D@std@@V?$allocator@D@2@@std@@V?$allocator@V?$basic_string@DU?$char_traits@D@std@@V?$allocator@D@2@@std@@@2@@std@@@0@0@Z
	??$_Set_ptr_rep_and_enable_shared@UCurlHolder@cpr@@@?$shared_ptr@UCurlHolder@cpr@@@std@@AAEXQAUCurlHolder@cpr@@QAV_Ref_count_base@1@@Z
	??$_Set_ptr_rep_and_enable_shared@V?$packaged_task@$$A6A?AVResponse@cpr@@XZ@std@@@?$shared_ptr@V?$packaged_task@$$A6A?AVResponse@cpr@@XZ@std@@@std@@AAEXQAV?$packaged_task@$$A6A?AVResponse@cpr@@XZ@1@QAV_Ref_count_base@1@@Z
	??$_Set_ptr_rep_and_enable_shared@Vthread@std@@@?$shared_ptr@Vthread@std@@@std@@AAEXQAVthread@1@QAV_Ref_count_base@1@@Z
	??$_Swap_adl@PAU?$_Tree_node@U?$pair@$$CBV?$basic_string@DU?$char_traits@D@std@@V?$allocator@D@2@@std@@V12@@std@@PAX@std@@@std@@YAXAAPAU?$_Tree_node@U?$pair@$$CBV?$basic_string@DU?$char_traits@D@std@@V?$allocator@D@2@@std@@V12@@std@@PAX@0@0@Z
	??$_Swap_adl@PAU?$_Tree_node@U?$pair@$$CBV?$basic_string@DU?$char_traits@D@std@@V?$allocator@D@2@@std@@VEncodedAuthentication@cpr@@@std@@PAX@std@@@std@@YAXAAPAU?$_Tree_node@U?$pair@$$CBV?$basic_string@DU?$char_traits@D@std@@V?$allocator@D@2@@std@@VEncodedAuthentication@cpr@@@std@@PAX@0@0@Z
	??$_To_absolute_time@_JU?$ratio@$00$0DOI@@std@@@std@@YA?A_PABV?$duration@_JU?$ratio@$00$0DOI@@std@@@chrono@0@@Z
	??$_To_address@PAPAV?$function@$$A6AXXZ@std@@@std@@YA?A_PABQAPAV?$function@$$A6AXXZ@0@@Z
	??$_To_address@PAPAV?$shared_ptr@VInterceptor@cpr@@@std@@@std@@YA?A_PABQAPAV?$shared_ptr@VInterceptor@cpr@@@0@@Z
	??$_To_address@PAUcurl_forms@@@std@@YA?A_PABQAUcurl_forms@@@Z
	??$_To_xtime_10_day_clamped@_JU?$ratio@$00$0DLJKMKAA@@std@@@std@@YA_NAAUxtime@@ABV?$duration@_JU?$ratio@$00$0DLJKMKAA@@std@@@chrono@0@@Z
	??$_Traits_compare@U?$char_traits@D@std@@@std@@YAHQBDI0I@Z
	??$_Traits_equal@U?$char_traits@D@std@@@std@@YA_NQBDI0I@Z
	??$_Traits_find_ch@U?$char_traits@D@std@@@std@@YAIQBDIID@Z
	??$_Traits_find_first_not_of@U?$char_traits@D@std@@$00@std@@YAIQBDII0I@Z
	??$_Traits_find_first_not_of@U?$char_traits@D@std@@$0A@@std@@YAIQBDII0I@Z
	??$_Traits_find_first_of@U?$char_traits@D@std@@$00@std@@YAIQBDII0I@Z
	??$_Traits_find_first_of@U?$char_traits@D@std@@$0A@@std@@YAIQBDII0I@Z
	??$_Traits_find_last_not_of@U?$char_traits@D@std@@$00@std@@YAIQBDII0I@Z
	??$_Traits_find_last_not_of@U?$char_traits@D@std@@$0A@@std@@YAIQBDII0I@Z
	??$_Try_emplace@ABV?$basic_string@DU?$char_traits@D@std@@V?$allocator@D@2@@std@@$$V@?$map@V?$basic_string@DU?$char_traits@D@std@@V?$allocator@D@2@@std@@V12@U?$less@V?$basic_string@DU?$char_traits@D@std@@V?$allocator@D@2@@std@@@2@V?$allocator@U?$pair@$$CBV?$basic_string@DU?$char_traits@D@std@@V?$allocator@D@2@@std@@V12@@std@@@2@@std@@AAE?AU?$pair@PAU?$_Tree_node@U?$pair@$$CBV?$basic_string@DU?$char_traits@D@std@@V?$allocator@D@2@@std@@V12@@std@@PAX@std@@_N@1@ABV?$basic_string@DU?$char_traits@D@std@@V?$allocator@D@2@@1@@Z
	??$_Try_emplace@ABV?$basic_string@DU?$char_traits@D@std@@V?$allocator@D@2@@std@@$$V@?$map@V?$basic_string@DU?$char_traits@D@std@@V?$allocator@D@2@@std@@V12@UCaseInsensitiveCompare@cpr@@V?$allocator@U?$pair@$$CBV?$basic_string@DU?$char_traits@D@std@@V?$allocator@D@2@@std@@V12@@std@@@2@@std@@AAE?AU?$pair@PAU?$_Tree_node@U?$pair@$$CBV?$basic_string@DU?$char_traits@D@std@@V?$allocator@D@2@@std@@V12@@std@@PAX@std@@_N@1@ABV?$basic_string@DU?$char_traits@D@std@@V?$allocator@D@2@@1@@Z
	??$_Try_emplace@ABV?$basic_string@DU?$char_traits@D@std@@V?$allocator@D@2@@std@@$$V@?$map@V?$basic_string@DU?$char_traits@D@std@@V?$allocator@D@2@@std@@VEncodedAuthentication@cpr@@U?$less@V?$basic_string@DU?$char_traits@D@std@@V?$allocator@D@2@@std@@@2@V?$allocator@U?$pair@$$CBV?$basic_string@DU?$char_traits@D@std@@V?$allocator@D@2@@std@@VEncodedAuthentication@cpr@@@std@@@2@@std@@AAE?AU?$pair@PAU?$_Tree_node@U?$pair@$$CBV?$basic_string@DU?$char_traits@D@std@@V?$allocator@D@2@@std@@VEncodedAuthentication@cpr@@@std@@PAX@std@@_N@1@ABV?$basic_string@DU?$char_traits@D@std@@V?$allocator@D@2@@1@@Z
	??$_Try_emplace@V?$basic_string@DU?$char_traits@D@std@@V?$allocator@D@2@@std@@$$V@?$map@V?$basic_string@DU?$char_traits@D@std@@V?$allocator@D@2@@std@@V12@UCaseInsensitiveCompare@cpr@@V?$allocator@U?$pair@$$CBV?$basic_string@DU?$char_traits@D@std@@V?$allocator@D@2@@std@@V12@@std@@@2@@std@@AAE?AU?$pair@PAU?$_Tree_node@U?$pair@$$CBV?$basic_string@DU?$char_traits@D@std@@V?$allocator@D@2@@std@@V12@@std@@PAX@std@@_N@1@$$QAV?$basic_string@DU?$char_traits@D@std@@V?$allocator@D@2@@1@@Z
	??$_Tuple_get@$0A@$$QAV?$basic_string@DU?$char_traits@D@std@@V?$allocator@D@2@@std@@@std@@YA$$QA_P$$QAV?$tuple@$$QAV?$basic_string@DU?$char_traits@D@std@@V?$allocator@D@2@@std@@@0@@Z
	??$_Tuple_get@$0A@ABV?$basic_string@DU?$char_traits@D@std@@V?$allocator@D@2@@std@@@std@@YA$$QA_P$$QAV?$tuple@ABV?$basic_string@DU?$char_traits@D@std@@V?$allocator@D@2@@std@@@0@@Z
	??$_UIntegral_to_buff@D_K@std@@YAPADPAD_K@Z
	??$_Unfancy@$$CBD@std@@YAPBDPBD@Z
	??$_Unfancy@D@std@@YAPADPAD@Z
	??$_Unfancy@UPair@cpr@@@std@@YAPAUPair@cpr@@PAU12@@Z
	??$_Unfancy@UParameter@cpr@@@std@@YAPAUParameter@cpr@@PAU12@@Z
	??$_Unfancy@UPart@cpr@@@std@@YAPAUPart@cpr@@PAU12@@Z
	??$_Unfancy@U_Container_proxy@std@@@std@@YAPAU_Container_proxy@0@PAU10@@Z
	??$_Unfancy@Ucurl_forms@@@std@@YAPAUcurl_forms@@PAU1@@Z
	??$_Unfancy@V?$basic_string@DU?$char_traits@D@std@@V?$allocator@D@2@@std@@@std@@YAPAV?$basic_string@DU?$char_traits@D@std@@V?$allocator@D@2@@0@PAV10@@Z
	??$_Unfancy@V?$function@$$A6AXXZ@std@@@std@@YAPAV?$function@$$A6AXXZ@0@PAV10@@Z
	??$_Unfancy@V?$shared_ptr@VInterceptor@cpr@@@std@@@std@@YAPAV?$shared_ptr@VInterceptor@cpr@@@0@PAV10@@Z
	??$_Unfancy@VCertInfo@cpr@@@std@@YAPAVCertInfo@cpr@@PAV12@@Z
	??$_Unfancy@VCookie@cpr@@@std@@YAPAVCookie@cpr@@PAV12@@Z
	??$_Unfancy_maybe_null@Ucurl_forms@@@std@@YAPAUcurl_forms@@PAU1@@Z
	??$_Uninitialized_copy@PAUParameter@cpr@@V?$allocator@UParameter@cpr@@@std@@@std@@YAPAUParameter@cpr@@QAU12@0PAU12@AAV?$allocator@UParameter@cpr@@@0@@Z
	??$_Uninitialized_copy@PAV?$basic_string@DU?$char_traits@D@std@@V?$allocator@D@2@@std@@V?$allocator@V?$basic_string@DU?$char_traits@D@std@@V?$allocator@D@2@@std@@@2@@std@@YAPAV?$basic_string@DU?$char_traits@D@std@@V?$allocator@D@2@@0@QAV10@0PAV10@AAV?$allocator@V?$basic_string@DU?$char_traits@D@std@@V?$allocator@D@2@@std@@@0@@Z
	??$_Uninitialized_copy@PAVCertInfo@cpr@@V?$allocator@VCertInfo@cpr@@@std@@@std@@YAPAVCertInfo@cpr@@QAV12@0PAV12@AAV?$allocator@VCertInfo@cpr@@@0@@Z
	??$_Uninitialized_copy@PBUPair@cpr@@V?$allocator@UPair@cpr@@@std@@@std@@YAPAUPair@cpr@@QBU12@0PAU12@AAV?$allocator@UPair@cpr@@@0@@Z
	??$_Uninitialized_copy@PBUParameter@cpr@@V?$allocator@UParameter@cpr@@@std@@@std@@YAPAUParameter@cpr@@QBU12@0PAU12@AAV?$allocator@UParameter@cpr@@@0@@Z
	??$_Uninitialized_copy@PBUPart@cpr@@V?$allocator@UPart@cpr@@@std@@@std@@YAPAUPart@cpr@@QBU12@0PAU12@AAV?$allocator@UPart@cpr@@@0@@Z
	??$_Uninitialized_copy@PBV?$basic_string@DU?$char_traits@D@std@@V?$allocator@D@2@@std@@V?$allocator@V?$basic_string@DU?$char_traits@D@std@@V?$allocator@D@2@@std@@@2@@std@@YAPAV?$basic_string@DU?$char_traits@D@std@@V?$allocator@D@2@@0@QBV10@0PAV10@AAV?$allocator@V?$basic_string@DU?$char_traits@D@std@@V?$allocator@D@2@@std@@@0@@Z
	??$_Uninitialized_copy_unchecked@PAPAV?$function@$$A6AXXZ@std@@PAPAV12@@std@@YAPAPAV?$function@$$A6AXXZ@0@PAPAV10@QAPAV10@0@Z
	??$_Uninitialized_copy_unchecked@PAPAV?$shared_ptr@VInterceptor@cpr@@@std@@PAPAV12@@std@@YAPAPAV?$shared_ptr@VInterceptor@cpr@@@0@PAPAV10@QAPAV10@0@Z
	??$_Uninitialized_move@PAUPair@cpr@@V?$allocator@UPair@cpr@@@std@@@std@@YAPAUPair@cpr@@QAU12@0PAU12@AAV?$allocator@UPair@cpr@@@0@@Z
	??$_Uninitialized_move@PAUParameter@cpr@@V?$allocator@UParameter@cpr@@@std@@@std@@YAPAUParameter@cpr@@QAU12@0PAU12@AAV?$allocator@UParameter@cpr@@@0@@Z
	??$_Uninitialized_move@PAUcurl_forms@@V?$allocator@Ucurl_forms@@@std@@@std@@YAPAUcurl_forms@@QAU1@0PAU1@AAV?$allocator@Ucurl_forms@@@0@@Z
	??$_Uninitialized_move@PAV?$basic_string@DU?$char_traits@D@std@@V?$allocator@D@2@@std@@V?$allocator@V?$basic_string@DU?$char_traits@D@std@@V?$allocator@D@2@@std@@@2@@std@@YAPAV?$basic_string@DU?$char_traits@D@std@@V?$allocator@D@2@@0@QAV10@0PAV10@AAV?$allocator@V?$basic_string@DU?$char_traits@D@std@@V?$allocator@D@2@@std@@@0@@Z
	??$_Uninitialized_move@PAVCertInfo@cpr@@V?$allocator@VCertInfo@cpr@@@std@@@std@@YAPAVCertInfo@cpr@@QAV12@0PAV12@AAV?$allocator@VCertInfo@cpr@@@0@@Z
	??$_Uninitialized_move@PAVCookie@cpr@@V?$allocator@VCookie@cpr@@@std@@@std@@YAPAVCookie@cpr@@QAV12@0PAV12@AAV?$allocator@VCookie@cpr@@@0@@Z
	??$_Uninitialized_value_construct_n_unchecked1@PAPAV?$function@$$A6AXXZ@std@@I@std@@YAPAPAV?$function@$$A6AXXZ@0@PAPAV10@I@Z
	??$_Uninitialized_value_construct_n_unchecked1@PAPAV?$shared_ptr@VInterceptor@cpr@@@std@@I@std@@YAPAPAV?$shared_ptr@VInterceptor@cpr@@@0@PAPAV10@I@Z
	??$_Verify_range@D@std@@YAXQBD0@Z
	??$_Verify_range@PAV?$function@$$A6AXXZ@std@@@std@@YAXQBQAV?$function@$$A6AXXZ@0@0@Z
	??$_Verify_range@PAV?$shared_ptr@VInterceptor@cpr@@@std@@@std@@YAXQBQAV?$shared_ptr@VInterceptor@cpr@@@0@0@Z
	??$_Verify_range@U?$pair@$$CBV?$basic_string@DU?$char_traits@D@std@@V?$allocator@D@2@@std@@V12@@std@@@std@@YAXQBU?$pair@$$CBV?$basic_string@DU?$char_traits@D@std@@V?$allocator@D@2@@std@@V12@@0@0@Z
	??$_Verify_range@U?$pair@$$CBW4AcceptEncodingMethods@cpr@@V?$basic_string@DU?$char_traits@D@std@@V?$allocator@D@2@@std@@@std@@@std@@YAXQBU?$pair@$$CBW4AcceptEncodingMethods@cpr@@V?$basic_string@DU?$char_traits@D@std@@V?$allocator@D@2@@std@@@0@0@Z
	??$_Verify_range@UPair@cpr@@@std@@YAXQBUPair@cpr@@0@Z
	??$_Verify_range@UParameter@cpr@@@std@@YAXQBUParameter@cpr@@0@Z
	??$_Verify_range@V?$basic_string@DU?$char_traits@D@std@@V?$allocator@D@2@@std@@@std@@YAXQBV?$basic_string@DU?$char_traits@D@std@@V?$allocator@D@2@@0@0@Z
	??$_Verify_range@W4AcceptEncodingMethods@cpr@@@std@@YAXQBW4AcceptEncodingMethods@cpr@@0@Z
	??$_Voidify_iter@PAPAD@std@@YAPAXPAPAD@Z
	??$_Voidify_iter@PAPAU?$_List_node@UThreadData@ThreadPool@cpr@@PAX@std@@@std@@YAPAXPAPAU?$_List_node@UThreadData@ThreadPool@cpr@@PAX@0@@Z
	??$_Voidify_iter@PAPAU?$_Tree_node@U?$pair@$$CBV?$basic_string@DU?$char_traits@D@std@@V?$allocator@D@2@@std@@V12@@std@@PAX@std@@@std@@YAPAXPAPAU?$_Tree_node@U?$pair@$$CBV?$basic_string@DU?$char_traits@D@std@@V?$allocator@D@2@@std@@V12@@std@@PAX@0@@Z
	??$_Voidify_iter@PAPAU?$_Tree_node@U?$pair@$$CBV?$basic_string@DU?$char_traits@D@std@@V?$allocator@D@2@@std@@VEncodedAuthentication@cpr@@@std@@PAX@std@@@std@@YAPAXPAPAU?$_Tree_node@U?$pair@$$CBV?$basic_string@DU?$char_traits@D@std@@V?$allocator@D@2@@std@@VEncodedAuthentication@cpr@@@std@@PAX@0@@Z
	??$_Voidify_iter@PAPAU?$_Tree_node@U?$pair@$$CBW4AcceptEncodingMethods@cpr@@V?$basic_string@DU?$char_traits@D@std@@V?$allocator@D@2@@std@@@std@@PAX@std@@@std@@YAPAXPAPAU?$_Tree_node@U?$pair@$$CBW4AcceptEncodingMethods@cpr@@V?$basic_string@DU?$char_traits@D@std@@V?$allocator@D@2@@std@@@std@@PAX@0@@Z
	??$_Voidify_iter@PAPAV?$function@$$A6AXXZ@std@@@std@@YAPAXPAPAV?$function@$$A6AXXZ@0@@Z
	??$_Voidify_iter@PAPAV?$shared_ptr@VInterceptor@cpr@@@std@@@std@@YAPAXPAPAV?$shared_ptr@VInterceptor@cpr@@@0@@Z
	??$_Voidify_iter@PAU?$pair@$$CBV?$basic_string@DU?$char_traits@D@std@@V?$allocator@D@2@@std@@V12@@std@@@std@@YAPAXPAU?$pair@$$CBV?$basic_string@DU?$char_traits@D@std@@V?$allocator@D@2@@std@@V12@@0@@Z
	??$_Voidify_iter@PAU?$pair@$$CBV?$basic_string@DU?$char_traits@D@std@@V?$allocator@D@2@@std@@VEncodedAuthentication@cpr@@@std@@@std@@YAPAXPAU?$pair@$$CBV?$basic_string@DU?$char_traits@D@std@@V?$allocator@D@2@@std@@VEncodedAuthentication@cpr@@@0@@Z
	??$_Voidify_iter@PAU?$pair@$$CBW4AcceptEncodingMethods@cpr@@V?$basic_string@DU?$char_traits@D@std@@V?$allocator@D@2@@std@@@std@@@std@@YAPAXPAU?$pair@$$CBW4AcceptEncodingMethods@cpr@@V?$basic_string@DU?$char_traits@D@std@@V?$allocator@D@2@@std@@@0@@Z
	??$_Voidify_iter@PAUPair@cpr@@@std@@YAPAXPAUPair@cpr@@@Z
	??$_Voidify_iter@PAUParameter@cpr@@@std@@YAPAXPAUParameter@cpr@@@Z
	??$_Voidify_iter@PAUPart@cpr@@@std@@YAPAXPAUPart@cpr@@@Z
	??$_Voidify_iter@PAUThreadData@ThreadPool@cpr@@@std@@YAPAXPAUThreadData@ThreadPool@cpr@@@Z
	??$_Voidify_iter@PAU_Container_proxy@std@@@std@@YAPAXPAU_Container_proxy@0@@Z
	??$_Voidify_iter@PAUcurl_forms@@@std@@YAPAXPAUcurl_forms@@@Z
	??$_Voidify_iter@PAV?$basic_string@DU?$char_traits@D@std@@V?$allocator@D@2@@std@@@std@@YAPAXPAV?$basic_string@DU?$char_traits@D@std@@V?$allocator@D@2@@0@@Z
	??$_Voidify_iter@PAV?$function@$$A6AXXZ@std@@@std@@YAPAXPAV?$function@$$A6AXXZ@0@@Z
	??$_Voidify_iter@PAV?$packaged_task@$$A6A?AVResponse@cpr@@XZ@std@@@std@@YAPAXPAV?$packaged_task@$$A6A?AVResponse@cpr@@XZ@0@@Z
	??$_Voidify_iter@PAV?$shared_ptr@VInterceptor@cpr@@@std@@@std@@YAPAXPAV?$shared_ptr@VInterceptor@cpr@@@0@@Z
	??$_Voidify_iter@PAVCertInfo@cpr@@@std@@YAPAXPAVCertInfo@cpr@@@Z
	??$_Voidify_iter@PAVCookie@cpr@@@std@@YAPAXPAVCookie@cpr@@@Z
	??$_Zero_range@PAPAV?$function@$$A6AXXZ@std@@@std@@YAPAPAV?$function@$$A6AXXZ@0@QAPAV10@0@Z
	??$_Zero_range@PAPAV?$shared_ptr@VInterceptor@cpr@@@std@@@std@@YAPAPAV?$shared_ptr@VInterceptor@cpr@@@0@QAPAV10@0@Z
	??$addressof@$$CBV?$_List_val@U?$_List_simple_types@UThreadData@ThreadPool@cpr@@@std@@@std@@@std@@YAPBV?$_List_val@U?$_List_simple_types@UThreadData@ThreadPool@cpr@@@std@@@0@ABV10@@Z
	??$addressof@$$CBV?$_State_manager@VResponse@cpr@@@std@@@std@@YAPBV?$_State_manager@VResponse@cpr@@@0@ABV10@@Z
	??$addressof@$$CBV?$_String_val@U?$_Simple_types@D@std@@@std@@@std@@YAPBV?$_String_val@U?$_Simple_types@D@std@@@0@ABV10@@Z
	??$addressof@$$CBV?$_Tree@V?$_Tmap_traits@V?$basic_string@DU?$char_traits@D@std@@V?$allocator@D@2@@std@@V12@U?$less@V?$basic_string@DU?$char_traits@D@std@@V?$allocator@D@2@@std@@@2@V?$allocator@U?$pair@$$CBV?$basic_string@DU?$char_traits@D@std@@V?$allocator@D@2@@std@@V12@@std@@@2@$0A@@std@@@std@@@std@@YAPBV?$_Tree@V?$_Tmap_traits@V?$basic_string@DU?$char_traits@D@std@@V?$allocator@D@2@@std@@V12@U?$less@V?$basic_string@DU?$char_traits@D@std@@V?$allocator@D@2@@std@@@2@V?$allocator@U?$pair@$$CBV?$basic_string@DU?$char_traits@D@std@@V?$allocator@D@2@@std@@V12@@std@@@2@$0A@@std@@@0@ABV10@@Z
	??$addressof@$$CBV?$_Tree@V?$_Tmap_traits@V?$basic_string@DU?$char_traits@D@std@@V?$allocator@D@2@@std@@V12@UCaseInsensitiveCompare@cpr@@V?$allocator@U?$pair@$$CBV?$basic_string@DU?$char_traits@D@std@@V?$allocator@D@2@@std@@V12@@std@@@2@$0A@@std@@@std@@@std@@YAPBV?$_Tree@V?$_Tmap_traits@V?$basic_string@DU?$char_traits@D@std@@V?$allocator@D@2@@std@@V12@UCaseInsensitiveCompare@cpr@@V?$allocator@U?$pair@$$CBV?$basic_string@DU?$char_traits@D@std@@V?$allocator@D@2@@std@@V12@@std@@@2@$0A@@std@@@0@ABV10@@Z
	??$addressof@$$CBV?$_Tree@V?$_Tmap_traits@V?$basic_string@DU?$char_traits@D@std@@V?$allocator@D@2@@std@@VEncodedAuthentication@cpr@@U?$less@V?$basic_string@DU?$char_traits@D@std@@V?$allocator@D@2@@std@@@2@V?$allocator@U?$pair@$$CBV?$basic_string@DU?$char_traits@D@std@@V?$allocator@D@2@@std@@VEncodedAuthentication@cpr@@@std@@@2@$0A@@std@@@std@@@std@@YAPBV?$_Tree@V?$_Tmap_traits@V?$basic_string@DU?$char_traits@D@std@@V?$allocator@D@2@@std@@VEncodedAuthentication@cpr@@U?$less@V?$basic_string@DU?$char_traits@D@std@@V?$allocator@D@2@@std@@@2@V?$allocator@U?$pair@$$CBV?$basic_string@DU?$char_traits@D@std@@V?$allocator@D@2@@std@@VEncodedAuthentication@cpr@@@std@@@2@$0A@@std@@@0@ABV10@@Z
	??$addressof@$$CBV?$_Tree_val@U?$_Tree_simple_types@U?$pair@$$CBV?$basic_string@DU?$char_traits@D@std@@V?$allocator@D@2@@std@@V12@@std@@@std@@@std@@@std@@YAPBV?$_Tree_val@U?$_Tree_simple_types@U?$pair@$$CBV?$basic_string@DU?$char_traits@D@std@@V?$allocator@D@2@@std@@V12@@std@@@std@@@0@ABV10@@Z
	??$addressof@$$CBV?$_Tree_val@U?$_Tree_simple_types@U?$pair@$$CBV?$basic_string@DU?$char_traits@D@std@@V?$allocator@D@2@@std@@VEncodedAuthentication@cpr@@@std@@@std@@@std@@@std@@YAPBV?$_Tree_val@U?$_Tree_simple_types@U?$pair@$$CBV?$basic_string@DU?$char_traits@D@std@@V?$allocator@D@2@@std@@VEncodedAuthentication@cpr@@@std@@@std@@@0@ABV10@@Z
	??$addressof@$$CBV?$_Tree_val@U?$_Tree_simple_types@U?$pair@$$CBW4AcceptEncodingMethods@cpr@@V?$basic_string@DU?$char_traits@D@std@@V?$allocator@D@2@@std@@@std@@@std@@@std@@@std@@YAPBV?$_Tree_val@U?$_Tree_simple_types@U?$pair@$$CBW4AcceptEncodingMethods@cpr@@V?$basic_string@DU?$char_traits@D@std@@V?$allocator@D@2@@std@@@std@@@std@@@0@ABV10@@Z
	??$addressof@$$CBV?$_Vector_val@U?$_Simple_types@V?$basic_string@DU?$char_traits@D@std@@V?$allocator@D@2@@std@@@std@@@std@@@std@@YAPBV?$_Vector_val@U?$_Simple_types@V?$basic_string@DU?$char_traits@D@std@@V?$allocator@D@2@@std@@@std@@@0@ABV10@@Z
	??$addressof@$$CBV?$_Vector_val@U?$_Simple_types@VCookie@cpr@@@std@@@std@@@std@@YAPBV?$_Vector_val@U?$_Simple_types@VCookie@cpr@@@std@@@0@ABV10@@Z
	??$addressof@$$CBV?$basic_string@DU?$char_traits@D@std@@V?$allocator@D@2@@std@@@std@@YAPBV?$basic_string@DU?$char_traits@D@std@@V?$allocator@D@2@@0@ABV10@@Z
	??$addressof@$$CBV?$vector@UParameter@cpr@@V?$allocator@UParameter@cpr@@@std@@@std@@@std@@YAPBV?$vector@UParameter@cpr@@V?$allocator@UParameter@cpr@@@std@@@0@ABV10@@Z
	??$addressof@$$CBV?$vector@V?$basic_string@DU?$char_traits@D@std@@V?$allocator@D@2@@std@@V?$allocator@V?$basic_string@DU?$char_traits@D@std@@V?$allocator@D@2@@std@@@2@@std@@@std@@YAPBV?$vector@V?$basic_string@DU?$char_traits@D@std@@V?$allocator@D@2@@std@@V?$allocator@V?$basic_string@DU?$char_traits@D@std@@V?$allocator@D@2@@std@@@2@@0@ABV10@@Z
	??$addressof@$$CBW4Status@ThreadPool@cpr@@@std@@YAPBW4Status@ThreadPool@cpr@@ABW4123@@Z
	??$addressof@D@std@@YAPADAAD@Z
	??$addressof@PAD@std@@YAPAPADAAPAD@Z
	??$addressof@PAU?$_List_node@UThreadData@ThreadPool@cpr@@PAX@std@@@std@@YAPAPAU?$_List_node@UThreadData@ThreadPool@cpr@@PAX@0@AAPAU10@@Z
	??$addressof@PAU?$_Tree_node@U?$pair@$$CBV?$basic_string@DU?$char_traits@D@std@@V?$allocator@D@2@@std@@V12@@std@@PAX@std@@@std@@YAPAPAU?$_Tree_node@U?$pair@$$CBV?$basic_string@DU?$char_traits@D@std@@V?$allocator@D@2@@std@@V12@@std@@PAX@0@AAPAU10@@Z
	??$addressof@PAU?$_Tree_node@U?$pair@$$CBV?$basic_string@DU?$char_traits@D@std@@V?$allocator@D@2@@std@@VEncodedAuthentication@cpr@@@std@@PAX@std@@@std@@YAPAPAU?$_Tree_node@U?$pair@$$CBV?$basic_string@DU?$char_traits@D@std@@V?$allocator@D@2@@std@@VEncodedAuthentication@cpr@@@std@@PAX@0@AAPAU10@@Z
	??$addressof@PAU?$_Tree_node@U?$pair@$$CBW4AcceptEncodingMethods@cpr@@V?$basic_string@DU?$char_traits@D@std@@V?$allocator@D@2@@std@@@std@@PAX@std@@@std@@YAPAPAU?$_Tree_node@U?$pair@$$CBW4AcceptEncodingMethods@cpr@@V?$basic_string@DU?$char_traits@D@std@@V?$allocator@D@2@@std@@@std@@PAX@0@AAPAU10@@Z
	??$addressof@PAV?$function@$$A6AXXZ@std@@@std@@YAPAPAV?$function@$$A6AXXZ@0@AAPAV10@@Z
	??$addressof@PAV?$shared_ptr@VInterceptor@cpr@@@std@@@std@@YAPAPAV?$shared_ptr@VInterceptor@cpr@@@0@AAPAV10@@Z
	??$addressof@U?$pair@$$CBV?$basic_string@DU?$char_traits@D@std@@V?$allocator@D@2@@std@@V12@@std@@@std@@YAPAU?$pair@$$CBV?$basic_string@DU?$char_traits@D@std@@V?$allocator@D@2@@std@@V12@@0@AAU10@@Z
	??$addressof@U?$pair@$$CBV?$basic_string@DU?$char_traits@D@std@@V?$allocator@D@2@@std@@VEncodedAuthentication@cpr@@@std@@@std@@YAPAU?$pair@$$CBV?$basic_string@DU?$char_traits@D@std@@V?$allocator@D@2@@std@@VEncodedAuthentication@cpr@@@0@AAU10@@Z
	??$addressof@U?$pair@$$CBW4AcceptEncodingMethods@cpr@@V?$basic_string@DU?$char_traits@D@std@@V?$allocator@D@2@@std@@@std@@@std@@YAPAU?$pair@$$CBW4AcceptEncodingMethods@cpr@@V?$basic_string@DU?$char_traits@D@std@@V?$allocator@D@2@@std@@@0@AAU10@@Z
	??$addressof@UPair@cpr@@@std@@YAPAUPair@cpr@@AAU12@@Z
	??$addressof@UParameter@cpr@@@std@@YAPAUParameter@cpr@@AAU12@@Z
	??$addressof@UThreadData@ThreadPool@cpr@@@std@@YAPAUThreadData@ThreadPool@cpr@@AAU123@@Z
	??$addressof@U_Container_base12@std@@@std@@YAPAU_Container_base12@0@AAU10@@Z
	??$addressof@U_Container_proxy@std@@@std@@YAPAU_Container_proxy@0@AAU10@@Z
	??$addressof@Ucurl_forms@@@std@@YAPAUcurl_forms@@AAU1@@Z
	??$addressof@V?$_Deque_val@U?$_Deque_simple_types@V?$function@$$A6AXXZ@std@@@std@@@std@@@std@@YAPAV?$_Deque_val@U?$_Deque_simple_types@V?$function@$$A6AXXZ@std@@@std@@@0@AAV10@@Z
	??$addressof@V?$_Deque_val@U?$_Deque_simple_types@V?$shared_ptr@VInterceptor@cpr@@@std@@@std@@@std@@@std@@YAPAV?$_Deque_val@U?$_Deque_simple_types@V?$shared_ptr@VInterceptor@cpr@@@std@@@std@@@0@AAV10@@Z
	??$addressof@V?$_List_val@U?$_List_simple_types@UThreadData@ThreadPool@cpr@@@std@@@std@@@std@@YAPAV?$_List_val@U?$_List_simple_types@UThreadData@ThreadPool@cpr@@@std@@@0@AAV10@@Z
	??$addressof@V?$_State_manager@VResponse@cpr@@@std@@@std@@YAPAV?$_State_manager@VResponse@cpr@@@0@AAV10@@Z
	??$addressof@V?$_String_val@U?$_Simple_types@D@std@@@std@@@std@@YAPAV?$_String_val@U?$_Simple_types@D@std@@@0@AAV10@@Z
	??$addressof@V?$_Tree@V?$_Tmap_traits@V?$basic_string@DU?$char_traits@D@std@@V?$allocator@D@2@@std@@V12@U?$less@V?$basic_string@DU?$char_traits@D@std@@V?$allocator@D@2@@std@@@2@V?$allocator@U?$pair@$$CBV?$basic_string@DU?$char_traits@D@std@@V?$allocator@D@2@@std@@V12@@std@@@2@$0A@@std@@@std@@@std@@YAPAV?$_Tree@V?$_Tmap_traits@V?$basic_string@DU?$char_traits@D@std@@V?$allocator@D@2@@std@@V12@U?$less@V?$basic_string@DU?$char_traits@D@std@@V?$allocator@D@2@@std@@@2@V?$allocator@U?$pair@$$CBV?$basic_string@DU?$char_traits@D@std@@V?$allocator@D@2@@std@@V12@@std@@@2@$0A@@std@@@0@AAV10@@Z
	??$addressof@V?$_Tree@V?$_Tmap_traits@V?$basic_string@DU?$char_traits@D@std@@V?$allocator@D@2@@std@@V12@UCaseInsensitiveCompare@cpr@@V?$allocator@U?$pair@$$CBV?$basic_string@DU?$char_traits@D@std@@V?$allocator@D@2@@std@@V12@@std@@@2@$0A@@std@@@std@@@std@@YAPAV?$_Tree@V?$_Tmap_traits@V?$basic_string@DU?$char_traits@D@std@@V?$allocator@D@2@@std@@V12@UCaseInsensitiveCompare@cpr@@V?$allocator@U?$pair@$$CBV?$basic_string@DU?$char_traits@D@std@@V?$allocator@D@2@@std@@V12@@std@@@2@$0A@@std@@@0@AAV10@@Z
	??$addressof@V?$_Tree@V?$_Tmap_traits@V?$basic_string@DU?$char_traits@D@std@@V?$allocator@D@2@@std@@VEncodedAuthentication@cpr@@U?$less@V?$basic_string@DU?$char_traits@D@std@@V?$allocator@D@2@@std@@@2@V?$allocator@U?$pair@$$CBV?$basic_string@DU?$char_traits@D@std@@V?$allocator@D@2@@std@@VEncodedAuthentication@cpr@@@std@@@2@$0A@@std@@@std@@@std@@YAPAV?$_Tree@V?$_Tmap_traits@V?$basic_string@DU?$char_traits@D@std@@V?$allocator@D@2@@std@@VEncodedAuthentication@cpr@@U?$less@V?$basic_string@DU?$char_traits@D@std@@V?$allocator@D@2@@std@@@2@V?$allocator@U?$pair@$$CBV?$basic_string@DU?$char_traits@D@std@@V?$allocator@D@2@@std@@VEncodedAuthentication@cpr@@@std@@@2@$0A@@std@@@0@AAV10@@Z
	??$addressof@V?$_Tree_val@U?$_Tree_simple_types@U?$pair@$$CBV?$basic_string@DU?$char_traits@D@std@@V?$allocator@D@2@@std@@V12@@std@@@std@@@std@@@std@@YAPAV?$_Tree_val@U?$_Tree_simple_types@U?$pair@$$CBV?$basic_string@DU?$char_traits@D@std@@V?$allocator@D@2@@std@@V12@@std@@@std@@@0@AAV10@@Z
	??$addressof@V?$_Tree_val@U?$_Tree_simple_types@U?$pair@$$CBV?$basic_string@DU?$char_traits@D@std@@V?$allocator@D@2@@std@@VEncodedAuthentication@cpr@@@std@@@std@@@std@@@std@@YAPAV?$_Tree_val@U?$_Tree_simple_types@U?$pair@$$CBV?$basic_string@DU?$char_traits@D@std@@V?$allocator@D@2@@std@@VEncodedAuthentication@cpr@@@std@@@std@@@0@AAV10@@Z
	??$addressof@V?$_Tree_val@U?$_Tree_simple_types@U?$pair@$$CBW4AcceptEncodingMethods@cpr@@V?$basic_string@DU?$char_traits@D@std@@V?$allocator@D@2@@std@@@std@@@std@@@std@@@std@@YAPAV?$_Tree_val@U?$_Tree_simple_types@U?$pair@$$CBW4AcceptEncodingMethods@cpr@@V?$basic_string@DU?$char_traits@D@std@@V?$allocator@D@2@@std@@@std@@@std@@@0@AAV10@@Z
	??$addressof@V?$_Vector_val@U?$_Simple_types@V?$basic_string@DU?$char_traits@D@std@@V?$allocator@D@2@@std@@@std@@@std@@@std@@YAPAV?$_Vector_val@U?$_Simple_types@V?$basic_string@DU?$char_traits@D@std@@V?$allocator@D@2@@std@@@std@@@0@AAV10@@Z
	??$addressof@V?$_Vector_val@U?$_Simple_types@VCookie@cpr@@@std@@@std@@@std@@YAPAV?$_Vector_val@U?$_Simple_types@VCookie@cpr@@@std@@@0@AAV10@@Z
	??$addressof@V?$basic_string@DU?$char_traits@D@std@@V?$allocator@D@2@@std@@@std@@YAPAV?$basic_string@DU?$char_traits@D@std@@V?$allocator@D@2@@0@AAV10@@Z
	??$addressof@V?$basic_stringbuf@DU?$char_traits@D@std@@V?$allocator@D@2@@std@@@std@@YAPAV?$basic_stringbuf@DU?$char_traits@D@std@@V?$allocator@D@2@@0@AAV10@@Z
	??$addressof@V?$function@$$A6AXXZ@std@@@std@@YAPAV?$function@$$A6AXXZ@0@AAV10@@Z
	??$addressof@V?$packaged_task@$$A6A?AVResponse@cpr@@XZ@std@@@std@@YAPAV?$packaged_task@$$A6A?AVResponse@cpr@@XZ@0@AAV10@@Z
	??$addressof@V?$vector@UPair@cpr@@V?$allocator@UPair@cpr@@@std@@@std@@@std@@YAPAV?$vector@UPair@cpr@@V?$allocator@UPair@cpr@@@std@@@0@AAV10@@Z
	??$addressof@V?$vector@UParameter@cpr@@V?$allocator@UParameter@cpr@@@std@@@std@@@std@@YAPAV?$vector@UParameter@cpr@@V?$allocator@UParameter@cpr@@@std@@@0@AAV10@@Z
	??$addressof@V?$vector@V?$basic_string@DU?$char_traits@D@std@@V?$allocator@D@2@@std@@V?$allocator@V?$basic_string@DU?$char_traits@D@std@@V?$allocator@D@2@@std@@@2@@std@@@std@@YAPAV?$vector@V?$basic_string@DU?$char_traits@D@std@@V?$allocator@D@2@@std@@V?$allocator@V?$basic_string@DU?$char_traits@D@std@@V?$allocator@D@2@@std@@@2@@0@AAV10@@Z
	??$addressof@V?$vector@VCookie@cpr@@V?$allocator@VCookie@cpr@@@std@@@std@@@std@@YAPAV?$vector@VCookie@cpr@@V?$allocator@VCookie@cpr@@@std@@@0@AAV10@@Z
	??$addressof@Vfuture_error@std@@@std@@YAPAVfuture_error@0@AAV10@@Z
	??$addressof@Vmutex@std@@@std@@YAPAVmutex@0@AAV10@@Z
	??$advance@PAUParameter@cpr@@H@std@@YAXAAPAUParameter@cpr@@H@Z
	??$advance@PAV?$basic_string@DU?$char_traits@D@std@@V?$allocator@D@2@@std@@H@std@@YAXAAPAV?$basic_string@DU?$char_traits@D@std@@V?$allocator@D@2@@0@H@Z
	??$advance@V?$_Vector_const_iterator@V?$_Vector_val@U?$_Simple_types@V?$basic_string@DU?$char_traits@D@std@@V?$allocator@D@2@@std@@@std@@@std@@@std@@H@std@@YAXAAV?$_Vector_const_iterator@V?$_Vector_val@U?$_Simple_types@V?$basic_string@DU?$char_traits@D@std@@V?$allocator@D@2@@std@@@std@@@std@@@0@H@Z
	??$assign@PAUParameter@cpr@@$0A@@?$vector@UParameter@cpr@@V?$allocator@UParameter@cpr@@@std@@@std@@QAEXPAUParameter@cpr@@0@Z
	??$assign@PAV?$basic_string@DU?$char_traits@D@std@@V?$allocator@D@2@@std@@$0A@@?$vector@V?$basic_string@DU?$char_traits@D@std@@V?$allocator@D@2@@std@@V?$allocator@V?$basic_string@DU?$char_traits@D@std@@V?$allocator@D@2@@std@@@2@@std@@QAEXPAV?$basic_string@DU?$char_traits@D@std@@V?$allocator@D@2@@1@0@Z
	??$back_inserter@V?$vector@UPair@cpr@@V?$allocator@UPair@cpr@@@std@@@std@@@std@@YA?AV?$back_insert_iterator@V?$vector@UPair@cpr@@V?$allocator@UPair@cpr@@@std@@@std@@@0@AAV?$vector@UPair@cpr@@V?$allocator@UPair@cpr@@@std@@@0@@Z
	??$back_inserter@V?$vector@UParameter@cpr@@V?$allocator@UParameter@cpr@@@std@@@std@@@std@@YA?AV?$back_insert_iterator@V?$vector@UParameter@cpr@@V?$allocator@UParameter@cpr@@@std@@@std@@@0@AAV?$vector@UParameter@cpr@@V?$allocator@UParameter@cpr@@@std@@@0@@Z
	??$back_inserter@V?$vector@V?$basic_string@DU?$char_traits@D@std@@V?$allocator@D@2@@std@@V?$allocator@V?$basic_string@DU?$char_traits@D@std@@V?$allocator@D@2@@std@@@2@@std@@@std@@YA?AV?$back_insert_iterator@V?$vector@V?$basic_string@DU?$char_traits@D@std@@V?$allocator@D@2@@std@@V?$allocator@V?$basic_string@DU?$char_traits@D@std@@V?$allocator@D@2@@std@@@2@@std@@@0@AAV?$vector@V?$basic_string@DU?$char_traits@D@std@@V?$allocator@D@2@@std@@V?$allocator@V?$basic_string@DU?$char_traits@D@std@@V?$allocator@D@2@@std@@@2@@0@@Z
	??$construct@U?$pair@$$CBV?$basic_string@DU?$char_traits@D@std@@V?$allocator@D@2@@std@@V12@@std@@AAU12@@?$_Default_allocator_traits@V?$allocator@U?$_Tree_node@U?$pair@$$CBV?$basic_string@DU?$char_traits@D@std@@V?$allocator@D@2@@std@@V12@@std@@PAX@std@@@std@@@std@@SAXAAV?$allocator@U?$_Tree_node@U?$pair@$$CBV?$basic_string@DU?$char_traits@D@std@@V?$allocator@D@2@@std@@V12@@std@@PAX@std@@@1@QAU?$pair@$$CBV?$basic_string@DU?$char_traits@D@std@@V?$allocator@D@2@@std@@V12@@1@AAU31@@Z
	??$construct@U?$pair@$$CBV?$basic_string@DU?$char_traits@D@std@@V?$allocator@D@2@@std@@V12@@std@@ABU12@@?$_Default_allocator_traits@V?$allocator@U?$_Tree_node@U?$pair@$$CBV?$basic_string@DU?$char_traits@D@std@@V?$allocator@D@2@@std@@V12@@std@@PAX@std@@@std@@@std@@SAXAAV?$allocator@U?$_Tree_node@U?$pair@$$CBV?$basic_string@DU?$char_traits@D@std@@V?$allocator@D@2@@std@@V12@@std@@PAX@std@@@1@QAU?$pair@$$CBV?$basic_string@DU?$char_traits@D@std@@V?$allocator@D@2@@std@@V12@@1@ABU31@@Z
	??$construct@U?$pair@$$CBV?$basic_string@DU?$char_traits@D@std@@V?$allocator@D@2@@std@@V12@@std@@ABUpiecewise_construct_t@2@V?$tuple@$$QAV?$basic_string@DU?$char_traits@D@std@@V?$allocator@D@2@@std@@@2@V?$tuple@$$V@2@@?$_Default_allocator_traits@V?$allocator@U?$_Tree_node@U?$pair@$$CBV?$basic_string@DU?$char_traits@D@std@@V?$allocator@D@2@@std@@V12@@std@@PAX@std@@@std@@@std@@SAXAAV?$allocator@U?$_Tree_node@U?$pair@$$CBV?$basic_string@DU?$char_traits@D@std@@V?$allocator@D@2@@std@@V12@@std@@PAX@std@@@1@QAU?$pair@$$CBV?$basic_string@DU?$char_traits@D@std@@V?$allocator@D@2@@std@@V12@@1@ABUpiecewise_construct_t@1@$$QAV?$tuple@$$QAV?$basic_string@DU?$char_traits@D@std@@V?$allocator@D@2@@std@@@1@$$QAV?$tuple@$$V@1@@Z
	??$construct@U?$pair@$$CBV?$basic_string@DU?$char_traits@D@std@@V?$allocator@D@2@@std@@V12@@std@@ABUpiecewise_construct_t@2@V?$tuple@ABV?$basic_string@DU?$char_traits@D@std@@V?$allocator@D@2@@std@@@2@V?$tuple@$$V@2@@?$_Default_allocator_traits@V?$allocator@U?$_Tree_node@U?$pair@$$CBV?$basic_string@DU?$char_traits@D@std@@V?$allocator@D@2@@std@@V12@@std@@PAX@std@@@std@@@std@@SAXAAV?$allocator@U?$_Tree_node@U?$pair@$$CBV?$basic_string@DU?$char_traits@D@std@@V?$allocator@D@2@@std@@V12@@std@@PAX@std@@@1@QAU?$pair@$$CBV?$basic_string@DU?$char_traits@D@std@@V?$allocator@D@2@@std@@V12@@1@ABUpiecewise_construct_t@1@$$QAV?$tuple@ABV?$basic_string@DU?$char_traits@D@std@@V?$allocator@D@2@@std@@@1@$$QAV?$tuple@$$V@1@@Z
	??$construct@U?$pair@$$CBV?$basic_string@DU?$char_traits@D@std@@V?$allocator@D@2@@std@@VEncodedAuthentication@cpr@@@std@@AAU12@@?$_Default_allocator_traits@V?$allocator@U?$_Tree_node@U?$pair@$$CBV?$basic_string@DU?$char_traits@D@std@@V?$allocator@D@2@@std@@VEncodedAuthentication@cpr@@@std@@PAX@std@@@std@@@std@@SAXAAV?$allocator@U?$_Tree_node@U?$pair@$$CBV?$basic_string@DU?$char_traits@D@std@@V?$allocator@D@2@@std@@VEncodedAuthentication@cpr@@@std@@PAX@std@@@1@QAU?$pair@$$CBV?$basic_string@DU?$char_traits@D@std@@V?$allocator@D@2@@std@@VEncodedAuthentication@cpr@@@1@AAU31@@Z
	??$construct@U?$pair@$$CBV?$basic_string@DU?$char_traits@D@std@@V?$allocator@D@2@@std@@VEncodedAuthentication@cpr@@@std@@ABUpiecewise_construct_t@2@V?$tuple@ABV?$basic_string@DU?$char_traits@D@std@@V?$allocator@D@2@@std@@@2@V?$tuple@$$V@2@@?$_Default_allocator_traits@V?$allocator@U?$_Tree_node@U?$pair@$$CBV?$basic_string@DU?$char_traits@D@std@@V?$allocator@D@2@@std@@VEncodedAuthentication@cpr@@@std@@PAX@std@@@std@@@std@@SAXAAV?$allocator@U?$_Tree_node@U?$pair@$$CBV?$basic_string@DU?$char_traits@D@std@@V?$allocator@D@2@@std@@VEncodedAuthentication@cpr@@@std@@PAX@std@@@1@QAU?$pair@$$CBV?$basic_string@DU?$char_traits@D@std@@V?$allocator@D@2@@std@@VEncodedAuthentication@cpr@@@1@ABUpiecewise_construct_t@1@$$QAV?$tuple@ABV?$basic_string@DU?$char_traits@D@std@@V?$allocator@D@2@@std@@@1@$$QAV?$tuple@$$V@1@@Z
	??$construct@U?$pair@$$CBW4AcceptEncodingMethods@cpr@@V?$basic_string@DU?$char_traits@D@std@@V?$allocator@D@2@@std@@@std@@ABU12@@?$_Default_allocator_traits@V?$allocator@U?$_Tree_node@U?$pair@$$CBW4AcceptEncodingMethods@cpr@@V?$basic_string@DU?$char_traits@D@std@@V?$allocator@D@2@@std@@@std@@PAX@std@@@std@@@std@@SAXAAV?$allocator@U?$_Tree_node@U?$pair@$$CBW4AcceptEncodingMethods@cpr@@V?$basic_string@DU?$char_traits@D@std@@V?$allocator@D@2@@std@@@std@@PAX@std@@@1@QAU?$pair@$$CBW4AcceptEncodingMethods@cpr@@V?$basic_string@DU?$char_traits@D@std@@V?$allocator@D@2@@std@@@1@ABU31@@Z
	??$construct@UPair@cpr@@ABU12@@?$_Default_allocator_traits@V?$allocator@UPair@cpr@@@std@@@std@@SAXAAV?$allocator@UPair@cpr@@@1@QAUPair@cpr@@ABU34@@Z
	??$construct@UPair@cpr@@U12@@?$_Default_allocator_traits@V?$allocator@UPair@cpr@@@std@@@std@@SAXAAV?$allocator@UPair@cpr@@@1@QAUPair@cpr@@$$QAU34@@Z
	??$construct@UParameter@cpr@@AAU12@@?$_Default_allocator_traits@V?$allocator@UParameter@cpr@@@std@@@std@@SAXAAV?$allocator@UParameter@cpr@@@1@QAUParameter@cpr@@AAU34@@Z
	??$construct@UParameter@cpr@@ABU12@@?$_Default_allocator_traits@V?$allocator@UParameter@cpr@@@std@@@std@@SAXAAV?$allocator@UParameter@cpr@@@1@QAUParameter@cpr@@ABU34@@Z
	??$construct@UParameter@cpr@@U12@@?$_Default_allocator_traits@V?$allocator@UParameter@cpr@@@std@@@std@@SAXAAV?$allocator@UParameter@cpr@@@1@QAUParameter@cpr@@$$QAU34@@Z
	??$construct@UPart@cpr@@ABU12@@?$_Default_allocator_traits@V?$allocator@UPart@cpr@@@std@@@std@@SAXAAV?$allocator@UPart@cpr@@@1@QAUPart@cpr@@ABU34@@Z
	??$construct@UThreadData@ThreadPool@cpr@@AAU123@@?$_Default_allocator_traits@V?$allocator@U?$_List_node@UThreadData@ThreadPool@cpr@@PAX@std@@@std@@@std@@SAXAAV?$allocator@U?$_List_node@UThreadData@ThreadPool@cpr@@PAX@std@@@1@QAUThreadData@ThreadPool@cpr@@AAU345@@Z
	??$construct@Ucurl_forms@@U1@@?$_Default_allocator_traits@V?$allocator@Ucurl_forms@@@std@@@std@@SAXAAV?$allocator@Ucurl_forms@@@1@QAUcurl_forms@@$$QAU3@@Z
	??$construct@V?$basic_string@DU?$char_traits@D@std@@V?$allocator@D@2@@std@@AAV12@@?$_Default_allocator_traits@V?$allocator@V?$basic_string@DU?$char_traits@D@std@@V?$allocator@D@2@@std@@@std@@@std@@SAXAAV?$allocator@V?$basic_string@DU?$char_traits@D@std@@V?$allocator@D@2@@std@@@1@QAV?$basic_string@DU?$char_traits@D@std@@V?$allocator@D@2@@1@AAV31@@Z
	??$construct@V?$basic_string@DU?$char_traits@D@std@@V?$allocator@D@2@@std@@AAY00$$CBD@?$_Default_allocator_traits@V?$allocator@V?$basic_string@DU?$char_traits@D@std@@V?$allocator@D@2@@std@@@std@@@std@@SAXAAV?$allocator@V?$basic_string@DU?$char_traits@D@std@@V?$allocator@D@2@@std@@@1@QAV?$basic_string@DU?$char_traits@D@std@@V?$allocator@D@2@@1@AAY00$$CBD@Z
	??$construct@V?$basic_string@DU?$char_traits@D@std@@V?$allocator@D@2@@std@@ABV12@@?$_Default_allocator_traits@V?$allocator@V?$basic_string@DU?$char_traits@D@std@@V?$allocator@D@2@@std@@@std@@@std@@SAXAAV?$allocator@V?$basic_string@DU?$char_traits@D@std@@V?$allocator@D@2@@std@@@1@QAV?$basic_string@DU?$char_traits@D@std@@V?$allocator@D@2@@1@ABV31@@Z
	??$construct@V?$basic_string@DU?$char_traits@D@std@@V?$allocator@D@2@@std@@V12@@?$_Default_allocator_traits@V?$allocator@V?$basic_string@DU?$char_traits@D@std@@V?$allocator@D@2@@std@@@std@@@std@@SAXAAV?$allocator@V?$basic_string@DU?$char_traits@D@std@@V?$allocator@D@2@@std@@@1@QAV?$basic_string@DU?$char_traits@D@std@@V?$allocator@D@2@@1@$$QAV31@@Z
	??$construct@V?$shared_ptr@VInterceptor@cpr@@@std@@ABV12@@?$_Default_allocator_traits@V?$allocator@V?$shared_ptr@VInterceptor@cpr@@@std@@@std@@@std@@SAXAAV?$allocator@V?$shared_ptr@VInterceptor@cpr@@@std@@@1@QAV?$shared_ptr@VInterceptor@cpr@@@1@ABV31@@Z
	??$construct@VCertInfo@cpr@@AAV12@@?$_Default_allocator_traits@V?$allocator@VCertInfo@cpr@@@std@@@std@@SAXAAV?$allocator@VCertInfo@cpr@@@1@QAVCertInfo@cpr@@AAV34@@Z
	??$construct@VCertInfo@cpr@@V12@@?$_Default_allocator_traits@V?$allocator@VCertInfo@cpr@@@std@@@std@@SAXAAV?$allocator@VCertInfo@cpr@@@1@QAVCertInfo@cpr@@$$QAV34@@Z
	??$construct@VCookie@cpr@@ABV12@@?$_Default_allocator_traits@V?$allocator@VCookie@cpr@@@std@@@std@@SAXAAV?$allocator@VCookie@cpr@@@1@QAVCookie@cpr@@ABV34@@Z
	??$construct@VCookie@cpr@@V12@@?$_Default_allocator_traits@V?$allocator@VCookie@cpr@@@std@@@std@@SAXAAV?$allocator@VCookie@cpr@@@1@QAVCookie@cpr@@$$QAV34@@Z
	??$destroy@U?$pair@$$CBV?$basic_string@DU?$char_traits@D@std@@V?$allocator@D@2@@std@@V12@@std@@@?$_Default_allocator_traits@V?$allocator@U?$_Tree_node@U?$pair@$$CBV?$basic_string@DU?$char_traits@D@std@@V?$allocator@D@2@@std@@V12@@std@@PAX@std@@@std@@@std@@SAXAAV?$allocator@U?$_Tree_node@U?$pair@$$CBV?$basic_string@DU?$char_traits@D@std@@V?$allocator@D@2@@std@@V12@@std@@PAX@std@@@1@QAU?$pair@$$CBV?$basic_string@DU?$char_traits@D@std@@V?$allocator@D@2@@std@@V12@@1@@Z
	??$destroy@U?$pair@$$CBV?$basic_string@DU?$char_traits@D@std@@V?$allocator@D@2@@std@@VEncodedAuthentication@cpr@@@std@@@?$_Default_allocator_traits@V?$allocator@U?$_Tree_node@U?$pair@$$CBV?$basic_string@DU?$char_traits@D@std@@V?$allocator@D@2@@std@@VEncodedAuthentication@cpr@@@std@@PAX@std@@@std@@@std@@SAXAAV?$allocator@U?$_Tree_node@U?$pair@$$CBV?$basic_string@DU?$char_traits@D@std@@V?$allocator@D@2@@std@@VEncodedAuthentication@cpr@@@std@@PAX@std@@@1@QAU?$pair@$$CBV?$basic_string@DU?$char_traits@D@std@@V?$allocator@D@2@@std@@VEncodedAuthentication@cpr@@@1@@Z
	??$destroy@U?$pair@$$CBW4AcceptEncodingMethods@cpr@@V?$basic_string@DU?$char_traits@D@std@@V?$allocator@D@2@@std@@@std@@@?$_Default_allocator_traits@V?$allocator@U?$_Tree_node@U?$pair@$$CBW4AcceptEncodingMethods@cpr@@V?$basic_string@DU?$char_traits@D@std@@V?$allocator@D@2@@std@@@std@@PAX@std@@@std@@@std@@SAXAAV?$allocator@U?$_Tree_node@U?$pair@$$CBW4AcceptEncodingMethods@cpr@@V?$basic_string@DU?$char_traits@D@std@@V?$allocator@D@2@@std@@@std@@PAX@std@@@1@QAU?$pair@$$CBW4AcceptEncodingMethods@cpr@@V?$basic_string@DU?$char_traits@D@std@@V?$allocator@D@2@@std@@@1@@Z
	??$destroy@UPair@cpr@@@?$_Default_allocator_traits@V?$allocator@UPair@cpr@@@std@@@std@@SAXAAV?$allocator@UPair@cpr@@@1@QAUPair@cpr@@@Z
	??$destroy@UParameter@cpr@@@?$_Default_allocator_traits@V?$allocator@UParameter@cpr@@@std@@@std@@SAXAAV?$allocator@UParameter@cpr@@@1@QAUParameter@cpr@@@Z
	??$destroy@UPart@cpr@@@?$_Default_allocator_traits@V?$allocator@UPart@cpr@@@std@@@std@@SAXAAV?$allocator@UPart@cpr@@@1@QAUPart@cpr@@@Z
	??$destroy@UThreadData@ThreadPool@cpr@@@?$_Default_allocator_traits@V?$allocator@U?$_List_node@UThreadData@ThreadPool@cpr@@PAX@std@@@std@@@std@@SAXAAV?$allocator@U?$_List_node@UThreadData@ThreadPool@cpr@@PAX@std@@@1@QAUThreadData@ThreadPool@cpr@@@Z
	??$destroy@V?$basic_string@DU?$char_traits@D@std@@V?$allocator@D@2@@std@@@?$_Default_allocator_traits@V?$allocator@V?$basic_string@DU?$char_traits@D@std@@V?$allocator@D@2@@std@@@std@@@std@@SAXAAV?$allocator@V?$basic_string@DU?$char_traits@D@std@@V?$allocator@D@2@@std@@@1@QAV?$basic_string@DU?$char_traits@D@std@@V?$allocator@D@2@@1@@Z
	??$destroy@V?$function@$$A6AXXZ@std@@@?$_Default_allocator_traits@V?$allocator@V?$function@$$A6AXXZ@std@@@std@@@std@@SAXAAV?$allocator@V?$function@$$A6AXXZ@std@@@1@QAV?$function@$$A6AXXZ@1@@Z
	??$destroy@V?$shared_ptr@VInterceptor@cpr@@@std@@@?$_Default_allocator_traits@V?$allocator@V?$shared_ptr@VInterceptor@cpr@@@std@@@std@@@std@@SAXAAV?$allocator@V?$shared_ptr@VInterceptor@cpr@@@std@@@1@QAV?$shared_ptr@VInterceptor@cpr@@@1@@Z
	??$destroy@VCertInfo@cpr@@@?$_Default_allocator_traits@V?$allocator@VCertInfo@cpr@@@std@@@std@@SAXAAV?$allocator@VCertInfo@cpr@@@1@QAVCertInfo@cpr@@@Z
	??$destroy@VCookie@cpr@@@?$_Default_allocator_traits@V?$allocator@VCookie@cpr@@@std@@@std@@SAXAAV?$allocator@VCookie@cpr@@@1@QAVCookie@cpr@@@Z
	??$distance@PAUParameter@cpr@@@std@@YAHPAUParameter@cpr@@0@Z
	??$distance@PAV?$basic_string@DU?$char_traits@D@std@@V?$allocator@D@2@@std@@@std@@YAHPAV?$basic_string@DU?$char_traits@D@std@@V?$allocator@D@2@@0@0@Z
	??$duration_cast@V?$duration@NU?$ratio@$00$0DLJKMKAA@@std@@@chrono@std@@NU?$ratio@$00$00@3@$0A@@chrono@std@@YA?AV?$duration@NU?$ratio@$00$0DLJKMKAA@@std@@@01@ABV?$duration@NU?$ratio@$00$00@std@@@01@@Z
	??$duration_cast@V?$duration@NU?$ratio@$00$0DLJKMKAA@@std@@@chrono@std@@_JU?$ratio@$00$0DLJKMKAA@@3@$0A@@chrono@std@@YA?AV?$duration@NU?$ratio@$00$0DLJKMKAA@@std@@@01@ABV?$duration@_JU?$ratio@$00$0DLJKMKAA@@std@@@01@@Z
	??$duration_cast@V?$duration@_JU?$ratio@$00$00@std@@@chrono@std@@_JU?$ratio@$00$0DLJKMKAA@@3@$0A@@chrono@std@@YA?AV?$duration@_JU?$ratio@$00$00@std@@@01@ABV?$duration@_JU?$ratio@$00$0DLJKMKAA@@std@@@01@@Z
	??$duration_cast@V?$duration@_JU?$ratio@$00$00@std@@@chrono@std@@_JU?$ratio@$00$0JIJGIA@@3@$0A@@chrono@std@@YA?AV?$duration@_JU?$ratio@$00$00@std@@@01@ABV?$duration@_JU?$ratio@$00$0JIJGIA@@std@@@01@@Z
	??$duration_cast@V?$duration@_JU?$ratio@$00$0DLJKMKAA@@std@@@chrono@std@@_JU?$ratio@$00$00@3@$0A@@chrono@std@@YA?AV?$duration@_JU?$ratio@$00$0DLJKMKAA@@std@@@01@ABV?$duration@_JU?$ratio@$00$00@std@@@01@@Z
	??$duration_cast@V?$duration@_JU?$ratio@$00$0DLJKMKAA@@std@@@chrono@std@@_JU?$ratio@$00$0DLJKMKAA@@3@$0A@@chrono@std@@YA?AV?$duration@_JU?$ratio@$00$0DLJKMKAA@@std@@@01@ABV201@@Z
	??$duration_cast@V?$duration@_JU?$ratio@$00$0DLJKMKAA@@std@@@chrono@std@@_JU?$ratio@$00$0DOI@@3@$0A@@chrono@std@@YA?AV?$duration@_JU?$ratio@$00$0DLJKMKAA@@std@@@01@ABV?$duration@_JU?$ratio@$00$0DOI@@std@@@01@@Z
	??$duration_cast@V?$duration@_JU?$ratio@$00$0DLJKMKAA@@std@@@chrono@std@@_JU?$ratio@$00$0JIJGIA@@3@$0A@@chrono@std@@YA?AV?$duration@_JU?$ratio@$00$0DLJKMKAA@@std@@@01@ABV?$duration@_JU?$ratio@$00$0JIJGIA@@std@@@01@@Z
	??$duration_cast@V?$duration@_JU?$ratio@$00$0JIJGIA@@std@@@chrono@std@@_JU?$ratio@$00$00@3@$0A@@chrono@std@@YA?AV?$duration@_JU?$ratio@$00$0JIJGIA@@std@@@01@ABV?$duration@_JU?$ratio@$00$00@std@@@01@@Z
	??$emplace_back@AAUThreadData@ThreadPool@cpr@@@?$list@UThreadData@ThreadPool@cpr@@V?$allocator@UThreadData@ThreadPool@cpr@@@std@@@std@@QAE?A_TAAUThreadData@ThreadPool@cpr@@@Z
	??$emplace_back@AAVCertInfo@cpr@@@?$vector@VCertInfo@cpr@@V?$allocator@VCertInfo@cpr@@@std@@@std@@QAE?A_TAAVCertInfo@cpr@@@Z
	??$emplace_back@AAY00$$CBD@?$vector@V?$basic_string@DU?$char_traits@D@std@@V?$allocator@D@2@@std@@V?$allocator@V?$basic_string@DU?$char_traits@D@std@@V?$allocator@D@2@@std@@@2@@std@@QAE?A_TAAY00$$CBD@Z
	??$emplace_back@ABUPair@cpr@@@?$vector@UPair@cpr@@V?$allocator@UPair@cpr@@@std@@@std@@QAE?A_TABUPair@cpr@@@Z
	??$emplace_back@ABUParameter@cpr@@@?$vector@UParameter@cpr@@V?$allocator@UParameter@cpr@@@std@@@std@@QAE?A_TABUParameter@cpr@@@Z
	??$emplace_back@ABV?$basic_string@DU?$char_traits@D@std@@V?$allocator@D@2@@std@@@?$vector@V?$basic_string@DU?$char_traits@D@std@@V?$allocator@D@2@@std@@V?$allocator@V?$basic_string@DU?$char_traits@D@std@@V?$allocator@D@2@@std@@@2@@std@@QAE?A_TABV?$basic_string@DU?$char_traits@D@std@@V?$allocator@D@2@@1@@Z
	??$emplace_back@ABVCookie@cpr@@@?$vector@VCookie@cpr@@V?$allocator@VCookie@cpr@@@std@@@std@@QAE?A_TABVCookie@cpr@@@Z
	??$emplace_back@UPair@cpr@@@?$vector@UPair@cpr@@V?$allocator@UPair@cpr@@@std@@@std@@QAE?A_T$$QAUPair@cpr@@@Z
	??$emplace_back@UParameter@cpr@@@?$vector@UParameter@cpr@@V?$allocator@UParameter@cpr@@@std@@@std@@QAE?A_T$$QAUParameter@cpr@@@Z
	??$emplace_back@Ucurl_forms@@@?$vector@Ucurl_forms@@V?$allocator@Ucurl_forms@@@std@@@std@@QAE?A_T$$QAUcurl_forms@@@Z
	??$emplace_back@V?$basic_string@DU?$char_traits@D@std@@V?$allocator@D@2@@std@@@?$vector@V?$basic_string@DU?$char_traits@D@std@@V?$allocator@D@2@@std@@V?$allocator@V?$basic_string@DU?$char_traits@D@std@@V?$allocator@D@2@@std@@@2@@std@@QAE?A_T$$QAV?$basic_string@DU?$char_traits@D@std@@V?$allocator@D@2@@1@@Z
	??$end@D$0BF@@std@@YAPADAAY0BF@D@Z
	??$exchange@PAU?$_Tree_node@U?$pair@$$CBV?$basic_string@DU?$char_traits@D@std@@V?$allocator@D@2@@std@@V12@@std@@PAX@std@@$$T@std@@YAPAU?$_Tree_node@U?$pair@$$CBV?$basic_string@DU?$char_traits@D@std@@V?$allocator@D@2@@std@@V12@@std@@PAX@0@AAPAU10@$$QA$$T@Z
	??$exchange@PAU?$_Tree_node@U?$pair@$$CBV?$basic_string@DU?$char_traits@D@std@@V?$allocator@D@2@@std@@V12@@std@@PAX@std@@AAPAU12@@std@@YAPAU?$_Tree_node@U?$pair@$$CBV?$basic_string@DU?$char_traits@D@std@@V?$allocator@D@2@@std@@V12@@std@@PAX@0@AAPAU10@0@Z
	??$exchange@PAU?$_Tree_node@U?$pair@$$CBV?$basic_string@DU?$char_traits@D@std@@V?$allocator@D@2@@std@@VEncodedAuthentication@cpr@@@std@@PAX@std@@$$T@std@@YAPAU?$_Tree_node@U?$pair@$$CBV?$basic_string@DU?$char_traits@D@std@@V?$allocator@D@2@@std@@VEncodedAuthentication@cpr@@@std@@PAX@0@AAPAU10@$$QA$$T@Z
	??$exchange@PAU?$_Tree_node@U?$pair@$$CBV?$basic_string@DU?$char_traits@D@std@@V?$allocator@D@2@@std@@VEncodedAuthentication@cpr@@@std@@PAX@std@@AAPAU12@@std@@YAPAU?$_Tree_node@U?$pair@$$CBV?$basic_string@DU?$char_traits@D@std@@V?$allocator@D@2@@std@@VEncodedAuthentication@cpr@@@std@@PAX@0@AAPAU10@0@Z
	??$exchange@PAU?$_Tree_node@U?$pair@$$CBW4AcceptEncodingMethods@cpr@@V?$basic_string@DU?$char_traits@D@std@@V?$allocator@D@2@@std@@@std@@PAX@std@@$$T@std@@YAPAU?$_Tree_node@U?$pair@$$CBW4AcceptEncodingMethods@cpr@@V?$basic_string@DU?$char_traits@D@std@@V?$allocator@D@2@@std@@@std@@PAX@0@AAPAU10@$$QA$$T@Z
	??$exchange@PAU?$_Tree_node@U?$pair@$$CBW4AcceptEncodingMethods@cpr@@V?$basic_string@DU?$char_traits@D@std@@V?$allocator@D@2@@std@@@std@@PAX@std@@AAPAU12@@std@@YAPAU?$_Tree_node@U?$pair@$$CBW4AcceptEncodingMethods@cpr@@V?$basic_string@DU?$char_traits@D@std@@V?$allocator@D@2@@std@@@std@@PAX@0@AAPAU10@0@Z
	??$exchange@PAU_Container_proxy@std@@$$T@std@@YAPAU_Container_proxy@0@AAPAU10@$$QA$$T@Z
	??$exchange@PAV?$basic_string@DU?$char_traits@D@std@@V?$allocator@D@2@@std@@$$T@std@@YAPAV?$basic_string@DU?$char_traits@D@std@@V?$allocator@D@2@@0@AAPAV10@$$QA$$T@Z
	??$exchange@PAVCertInfo@cpr@@$$T@std@@YAPAVCertInfo@cpr@@AAPAV12@$$QA$$T@Z
	??$exchange@PAVCookie@cpr@@$$T@std@@YAPAVCookie@cpr@@AAPAV12@$$QA$$T@Z
	??$exchange@PAV_Facet_base@std@@$$T@std@@YAPAV_Facet_base@0@AAPAV10@$$QA$$T@Z
	??$exchange@PAX$$T@std@@YAPAXAAPAX$$QA$$T@Z
	??$forward@AAI@std@@YAAAIAAI@Z
	??$forward@AAPAD@std@@YAAAPADAAPAD@Z
	??$forward@AAPAU?$_List_node@UThreadData@ThreadPool@cpr@@PAX@std@@@std@@YAAAPAU?$_List_node@UThreadData@ThreadPool@cpr@@PAX@0@AAPAU10@@Z
	??$forward@AAPAU?$_Tree_node@U?$pair@$$CBV?$basic_string@DU?$char_traits@D@std@@V?$allocator@D@2@@std@@V12@@std@@PAX@std@@@std@@YAAAPAU?$_Tree_node@U?$pair@$$CBV?$basic_string@DU?$char_traits@D@std@@V?$allocator@D@2@@std@@V12@@std@@PAX@0@AAPAU10@@Z
	??$forward@AAPAU?$_Tree_node@U?$pair@$$CBV?$basic_string@DU?$char_traits@D@std@@V?$allocator@D@2@@std@@VEncodedAuthentication@cpr@@@std@@PAX@std@@@std@@YAAAPAU?$_Tree_node@U?$pair@$$CBV?$basic_string@DU?$char_traits@D@std@@V?$allocator@D@2@@std@@VEncodedAuthentication@cpr@@@std@@PAX@0@AAPAU10@@Z
	??$forward@AAPAU?$_Tree_node@U?$pair@$$CBW4AcceptEncodingMethods@cpr@@V?$basic_string@DU?$char_traits@D@std@@V?$allocator@D@2@@std@@@std@@PAX@std@@@std@@YAAAPAU?$_Tree_node@U?$pair@$$CBW4AcceptEncodingMethods@cpr@@V?$basic_string@DU?$char_traits@D@std@@V?$allocator@D@2@@std@@@std@@PAX@0@AAPAU10@@Z
	??$forward@AAPAV?$function@$$A6AXXZ@std@@@std@@YAAAPAV?$function@$$A6AXXZ@0@AAPAV10@@Z
	??$forward@AAPAV?$shared_ptr@VInterceptor@cpr@@@std@@@std@@YAAAPAV?$shared_ptr@VInterceptor@cpr@@@0@AAPAV10@@Z
	??$forward@AAPAV_Facet_base@std@@@std@@YAAAPAV_Facet_base@0@AAPAV10@@Z
	??$forward@AAU?$pair@$$CBV?$basic_string@DU?$char_traits@D@std@@V?$allocator@D@2@@std@@V12@@std@@@std@@YAAAU?$pair@$$CBV?$basic_string@DU?$char_traits@D@std@@V?$allocator@D@2@@std@@V12@@0@AAU10@@Z
	??$forward@AAU?$pair@$$CBV?$basic_string@DU?$char_traits@D@std@@V?$allocator@D@2@@std@@VEncodedAuthentication@cpr@@@std@@@std@@YAAAU?$pair@$$CBV?$basic_string@DU?$char_traits@D@std@@V?$allocator@D@2@@std@@VEncodedAuthentication@cpr@@@0@AAU10@@Z
	??$forward@AAUParameter@cpr@@@std@@YAAAUParameter@cpr@@AAU12@@Z
	??$forward@AAUThreadData@ThreadPool@cpr@@@std@@YAAAUThreadData@ThreadPool@cpr@@AAU123@@Z
	??$forward@AAV?$allocator@D@std@@@std@@YAAAV?$allocator@D@0@AAV10@@Z
	??$forward@AAV?$back_insert_iterator@V?$vector@UPair@cpr@@V?$allocator@UPair@cpr@@@std@@@std@@@std@@@std@@YAAAV?$back_insert_iterator@V?$vector@UPair@cpr@@V?$allocator@UPair@cpr@@@std@@@std@@@0@AAV10@@Z
	??$forward@AAV?$back_insert_iterator@V?$vector@UParameter@cpr@@V?$allocator@UParameter@cpr@@@std@@@std@@@std@@@std@@YAAAV?$back_insert_iterator@V?$vector@UParameter@cpr@@V?$allocator@UParameter@cpr@@@std@@@std@@@0@AAV10@@Z
	??$forward@AAV?$back_insert_iterator@V?$vector@V?$basic_string@DU?$char_traits@D@std@@V?$allocator@D@2@@std@@V?$allocator@V?$basic_string@DU?$char_traits@D@std@@V?$allocator@D@2@@std@@@2@@std@@@std@@@std@@YAAAV?$back_insert_iterator@V?$vector@V?$basic_string@DU?$char_traits@D@std@@V?$allocator@D@2@@std@@V?$allocator@V?$basic_string@DU?$char_traits@D@std@@V?$allocator@D@2@@std@@@2@@std@@@0@AAV10@@Z
	??$forward@AAV?$basic_string@DU?$char_traits@D@std@@V?$allocator@D@2@@std@@@std@@YAAAV?$basic_string@DU?$char_traits@D@std@@V?$allocator@D@2@@0@AAV10@@Z
	??$forward@AAVCertInfo@cpr@@@std@@YAAAVCertInfo@cpr@@AAV12@@Z
	??$forward@AAY00$$CBD@std@@YAAAY00$$CBDAAY00$$CBD@Z
	??$forward@AAY04$$CBD@std@@YAAAY04$$CBDAAY04$$CBD@Z
	??$forward@AAY07$$CBD@std@@YAAAY07$$CBDAAY07$$CBD@Z
	??$forward@AAY08$$CBD@std@@YAAAY08$$CBDAAY08$$CBD@Z
	??$forward@ABQAD@std@@YAABQADABQAD@Z
	??$forward@ABQAU?$_List_node@UThreadData@ThreadPool@cpr@@PAX@std@@@std@@YAABQAU?$_List_node@UThreadData@ThreadPool@cpr@@PAX@0@ABQAU10@@Z
	??$forward@ABQAU?$_Tree_node@U?$pair@$$CBV?$basic_string@DU?$char_traits@D@std@@V?$allocator@D@2@@std@@V12@@std@@PAX@std@@@std@@YAABQAU?$_Tree_node@U?$pair@$$CBV?$basic_string@DU?$char_traits@D@std@@V?$allocator@D@2@@std@@V12@@std@@PAX@0@ABQAU10@@Z
	??$forward@ABQAU?$_Tree_node@U?$pair@$$CBV?$basic_string@DU?$char_traits@D@std@@V?$allocator@D@2@@std@@VEncodedAuthentication@cpr@@@std@@PAX@std@@@std@@YAABQAU?$_Tree_node@U?$pair@$$CBV?$basic_string@DU?$char_traits@D@std@@V?$allocator@D@2@@std@@VEncodedAuthentication@cpr@@@std@@PAX@0@ABQAU10@@Z
	??$forward@ABQAU?$_Tree_node@U?$pair@$$CBW4AcceptEncodingMethods@cpr@@V?$basic_string@DU?$char_traits@D@std@@V?$allocator@D@2@@std@@@std@@PAX@std@@@std@@YAABQAU?$_Tree_node@U?$pair@$$CBW4AcceptEncodingMethods@cpr@@V?$basic_string@DU?$char_traits@D@std@@V?$allocator@D@2@@std@@@std@@PAX@0@ABQAU10@@Z
	??$forward@ABQAV?$basic_string@DU?$char_traits@D@std@@V?$allocator@D@2@@std@@@std@@YAABQAV?$basic_string@DU?$char_traits@D@std@@V?$allocator@D@2@@0@ABQAV10@@Z
	??$forward@ABU?$less@V?$basic_string@DU?$char_traits@D@std@@V?$allocator@D@2@@std@@@std@@@std@@YAABU?$less@V?$basic_string@DU?$char_traits@D@std@@V?$allocator@D@2@@std@@@0@ABU10@@Z
	??$forward@ABU?$less@W4AcceptEncodingMethods@cpr@@@std@@@std@@YAABU?$less@W4AcceptEncodingMethods@cpr@@@0@ABU10@@Z
	??$forward@ABU?$pair@$$CBV?$basic_string@DU?$char_traits@D@std@@V?$allocator@D@2@@std@@V12@@std@@@std@@YAABU?$pair@$$CBV?$basic_string@DU?$char_traits@D@std@@V?$allocator@D@2@@std@@V12@@0@ABU10@@Z
	??$forward@ABU?$pair@$$CBW4AcceptEncodingMethods@cpr@@V?$basic_string@DU?$char_traits@D@std@@V?$allocator@D@2@@std@@@std@@@std@@YAABU?$pair@$$CBW4AcceptEncodingMethods@cpr@@V?$basic_string@DU?$char_traits@D@std@@V?$allocator@D@2@@std@@@0@ABU10@@Z
	??$forward@ABUCaseInsensitiveCompare@cpr@@@std@@YAABUCaseInsensitiveCompare@cpr@@ABU12@@Z
	??$forward@ABUPair@cpr@@@std@@YAABUPair@cpr@@ABU12@@Z
	??$forward@ABUParameter@cpr@@@std@@YAABUParameter@cpr@@ABU12@@Z
	??$forward@ABUPart@cpr@@@std@@YAABUPart@cpr@@ABU12@@Z
	??$forward@ABUpiecewise_construct_t@std@@@std@@YAABUpiecewise_construct_t@0@ABU10@@Z
	??$forward@ABV?$allocator@D@std@@@std@@YAABV?$allocator@D@0@ABV10@@Z
	??$forward@ABV?$allocator@UPair@cpr@@@std@@@std@@YAABV?$allocator@UPair@cpr@@@0@ABV10@@Z
	??$forward@ABV?$allocator@UParameter@cpr@@@std@@@std@@YAABV?$allocator@UParameter@cpr@@@0@ABV10@@Z
	??$forward@ABV?$allocator@UPart@cpr@@@std@@@std@@YAABV?$allocator@UPart@cpr@@@0@ABV10@@Z
	??$forward@ABV?$allocator@V?$basic_string@DU?$char_traits@D@std@@V?$allocator@D@2@@std@@@std@@@std@@YAABV?$allocator@V?$basic_string@DU?$char_traits@D@std@@V?$allocator@D@2@@std@@@0@ABV10@@Z
	??$forward@ABV?$basic_string@DU?$char_traits@D@std@@V?$allocator@D@2@@std@@@std@@YAABV?$basic_string@DU?$char_traits@D@std@@V?$allocator@D@2@@0@ABV10@@Z
	??$forward@ABV?$shared_ptr@VInterceptor@cpr@@@std@@@std@@YAABV?$shared_ptr@VInterceptor@cpr@@@0@ABV10@@Z
	??$forward@ABVCookie@cpr@@@std@@YAABVCookie@cpr@@ABV12@@Z
	??$forward@H@std@@YA$$QAHAAH@Z
	??$forward@PAD@std@@YA$$QAPADAAPAD@Z
	??$forward@PAPAV?$function@$$A6AXXZ@std@@@std@@YA$$QAPAPAV?$function@$$A6AXXZ@0@AAPAPAV10@@Z
	??$forward@PAPAV?$shared_ptr@VInterceptor@cpr@@@std@@@std@@YA$$QAPAPAV?$shared_ptr@VInterceptor@cpr@@@0@AAPAPAV10@@Z
	??$forward@PAU?$_Tree_node@U?$pair@$$CBV?$basic_string@DU?$char_traits@D@std@@V?$allocator@D@2@@std@@V12@@std@@PAX@std@@@std@@YA$$QAPAU?$_Tree_node@U?$pair@$$CBV?$basic_string@DU?$char_traits@D@std@@V?$allocator@D@2@@std@@V12@@std@@PAX@0@AAPAU10@@Z
	??$forward@PAU?$_Tree_node@U?$pair@$$CBV?$basic_string@DU?$char_traits@D@std@@V?$allocator@D@2@@std@@VEncodedAuthentication@cpr@@@std@@PAX@std@@@std@@YA$$QAPAU?$_Tree_node@U?$pair@$$CBV?$basic_string@DU?$char_traits@D@std@@V?$allocator@D@2@@std@@VEncodedAuthentication@cpr@@@std@@PAX@0@AAPAU10@@Z
	??$forward@PAU_Container_base12@std@@@std@@YA$$QAPAU_Container_base12@0@AAPAU10@@Z
	??$forward@PAV?$basic_string@DU?$char_traits@D@std@@V?$allocator@D@2@@std@@@std@@YA$$QAPAV?$basic_string@DU?$char_traits@D@std@@V?$allocator@D@2@@0@AAPAV10@@Z
	??$forward@PAVCertInfo@cpr@@@std@@YA$$QAPAVCertInfo@cpr@@AAPAV12@@Z
	??$forward@PAVCookie@cpr@@@std@@YA$$QAPAVCookie@cpr@@AAPAV12@@Z
	??$forward@PBUPair@cpr@@@std@@YA$$QAPBUPair@cpr@@AAPBU12@@Z
	??$forward@PBUParameter@cpr@@@std@@YA$$QAPBUParameter@cpr@@AAPBU12@@Z
	??$forward@PBUPart@cpr@@@std@@YA$$QAPBUPart@cpr@@AAPBU12@@Z
	??$forward@PBV?$basic_string@DU?$char_traits@D@std@@V?$allocator@D@2@@std@@@std@@YA$$QAPBV?$basic_string@DU?$char_traits@D@std@@V?$allocator@D@2@@0@AAPBV10@@Z
	??$forward@UCaseInsensitiveCompare@cpr@@@std@@YA$$QAUCaseInsensitiveCompare@cpr@@AAU12@@Z
	??$forward@UPair@cpr@@@std@@YA$$QAUPair@cpr@@AAU12@@Z
	??$forward@UParameter@cpr@@@std@@YA$$QAUParameter@cpr@@AAU12@@Z
	??$forward@U_One_then_variadic_args_t@std@@@std@@YA$$QAU_One_then_variadic_args_t@0@AAU10@@Z
	??$forward@U_Zero_then_variadic_args_t@std@@@std@@YA$$QAU_Zero_then_variadic_args_t@0@AAU10@@Z
	??$forward@Ucurl_forms@@@std@@YA$$QAUcurl_forms@@AAU1@@Z
	??$forward@V?$allocator@D@std@@@std@@YA$$QAV?$allocator@D@0@AAV10@@Z
	??$forward@V?$allocator@U?$_Tree_node@U?$pair@$$CBV?$basic_string@DU?$char_traits@D@std@@V?$allocator@D@2@@std@@V12@@std@@PAX@std@@@std@@@std@@YA$$QAV?$allocator@U?$_Tree_node@U?$pair@$$CBV?$basic_string@DU?$char_traits@D@std@@V?$allocator@D@2@@std@@V12@@std@@PAX@std@@@0@AAV10@@Z
	??$forward@V?$allocator@V?$basic_string@DU?$char_traits@D@std@@V?$allocator@D@2@@std@@@std@@@std@@YA$$QAV?$allocator@V?$basic_string@DU?$char_traits@D@std@@V?$allocator@D@2@@std@@@0@AAV10@@Z
	??$forward@V?$allocator@VCertInfo@cpr@@@std@@@std@@YA$$QAV?$allocator@VCertInfo@cpr@@@0@AAV10@@Z
	??$forward@V?$allocator@VCookie@cpr@@@std@@@std@@YA$$QAV?$allocator@VCookie@cpr@@@0@AAV10@@Z
	??$forward@V?$basic_string@DU?$char_traits@D@std@@V?$allocator@D@2@@std@@@std@@YA$$QAV?$basic_string@DU?$char_traits@D@std@@V?$allocator@D@2@@0@AAV10@@Z
	??$forward@V?$tuple@$$QAV?$basic_string@DU?$char_traits@D@std@@V?$allocator@D@2@@std@@@std@@@std@@YA$$QAV?$tuple@$$QAV?$basic_string@DU?$char_traits@D@std@@V?$allocator@D@2@@std@@@0@AAV10@@Z
	??$forward@V?$tuple@$$V@std@@@std@@YA$$QAV?$tuple@$$V@0@AAV10@@Z
	??$forward@V?$tuple@ABV?$basic_string@DU?$char_traits@D@std@@V?$allocator@D@2@@std@@@std@@@std@@YA$$QAV?$tuple@ABV?$basic_string@DU?$char_traits@D@std@@V?$allocator@D@2@@std@@@0@AAV10@@Z
	??$forward@VCertInfo@cpr@@@std@@YA$$QAVCertInfo@cpr@@AAV12@@Z
	??$forward@VCookie@cpr@@@std@@YA$$QAVCookie@cpr@@AAV12@@Z
	??$forward@VResponse@cpr@@@std@@YA$$QAVResponse@cpr@@AAV12@@Z
	??$forward@W4AcceptEncodingMethods@cpr@@@std@@YA$$QAW4AcceptEncodingMethods@cpr@@AAW412@@Z
	??$forward@W4InfoType@DebugCallback@cpr@@@std@@YA$$QAW4InfoType@DebugCallback@cpr@@AAW4123@@Z
	??$forward@_J@std@@YA$$QA_JAA_J@Z
	??$forward@_N@std@@YA$$QA_NAA_N@Z
	??$forward_as_tuple@$$V@std@@YA?AV?$tuple@$$V@0@XZ
	??$forward_as_tuple@ABV?$basic_string@DU?$char_traits@D@std@@V?$allocator@D@2@@std@@@std@@YA?AV?$tuple@ABV?$basic_string@DU?$char_traits@D@std@@V?$allocator@D@2@@std@@@0@ABV?$basic_string@DU?$char_traits@D@std@@V?$allocator@D@2@@0@@Z
	??$forward_as_tuple@V?$basic_string@DU?$char_traits@D@std@@V?$allocator@D@2@@std@@@std@@YA?AV?$tuple@$$QAV?$basic_string@DU?$char_traits@D@std@@V?$allocator@D@2@@std@@@0@$$QAV?$basic_string@DU?$char_traits@D@std@@V?$allocator@D@2@@0@@Z
	??$getline@DU?$char_traits@D@std@@V?$allocator@D@2@@std@@YAAAV?$basic_istream@DU?$char_traits@D@std@@@0@$$QAV10@AAV?$basic_string@DU?$char_traits@D@std@@V?$allocator@D@2@@0@D@Z
	??$getline@DU?$char_traits@D@std@@V?$allocator@D@2@@std@@YAAAV?$basic_istream@DU?$char_traits@D@std@@@0@AAV10@AAV?$basic_string@DU?$char_traits@D@std@@V?$allocator@D@2@@0@D@Z
	??$insert@PBU?$pair@$$CBV?$basic_string@DU?$char_traits@D@std@@V?$allocator@D@2@@std@@V12@@std@@@?$_Tree@V?$_Tmap_traits@V?$basic_string@DU?$char_traits@D@std@@V?$allocator@D@2@@std@@V12@U?$less@V?$basic_string@DU?$char_traits@D@std@@V?$allocator@D@2@@std@@@2@V?$allocator@U?$pair@$$CBV?$basic_string@DU?$char_traits@D@std@@V?$allocator@D@2@@std@@V12@@std@@@2@$0A@@std@@@std@@QAEXPBU?$pair@$$CBV?$basic_string@DU?$char_traits@D@std@@V?$allocator@D@2@@std@@V12@@1@0@Z
	??$insert@PBU?$pair@$$CBW4AcceptEncodingMethods@cpr@@V?$basic_string@DU?$char_traits@D@std@@V?$allocator@D@2@@std@@@std@@@?$_Tree@V?$_Tmap_traits@W4AcceptEncodingMethods@cpr@@V?$basic_string@DU?$char_traits@D@std@@V?$allocator@D@2@@std@@U?$less@W4AcceptEncodingMethods@cpr@@@4@V?$allocator@U?$pair@$$CBW4AcceptEncodingMethods@cpr@@V?$basic_string@DU?$char_traits@D@std@@V?$allocator@D@2@@std@@@std@@@4@$0A@@std@@@std@@QAEXPBU?$pair@$$CBW4AcceptEncodingMethods@cpr@@V?$basic_string@DU?$char_traits@D@std@@V?$allocator@D@2@@std@@@1@0@Z
	??$make_exception_ptr@Vfuture_error@std@@@std@@YA?AVexception_ptr@0@Vfuture_error@0@@Z
	??$max@I@std@@YAABIABI0@Z
	??$max@PAD@std@@YAABQADABQAD0@Z
	??$min@I@std@@YAABIABI0@Z
	??$move@AAI@std@@YA$$QAIAAI@Z
	??$move@AAPAU?$_Tree_node@U?$pair@$$CBV?$basic_string@DU?$char_traits@D@std@@V?$allocator@D@2@@std@@V12@@std@@PAX@std@@@std@@YA$$QAPAU?$_Tree_node@U?$pair@$$CBV?$basic_string@DU?$char_traits@D@std@@V?$allocator@D@2@@std@@V12@@std@@PAX@0@AAPAU10@@Z
	??$move@AAPAU?$_Tree_node@U?$pair@$$CBV?$basic_string@DU?$char_traits@D@std@@V?$allocator@D@2@@std@@VEncodedAuthentication@cpr@@@std@@PAX@std@@@std@@YA$$QAPAU?$_Tree_node@U?$pair@$$CBV?$basic_string@DU?$char_traits@D@std@@V?$allocator@D@2@@std@@VEncodedAuthentication@cpr@@@std@@PAX@0@AAPAU10@@Z
	??$move@AAPAUCurlHolder@cpr@@@std@@YA$$QAPAUCurlHolder@cpr@@AAPAU12@@Z
	??$move@AAPAV_Ref_count_base@std@@@std@@YA$$QAPAV_Ref_count_base@0@AAPAV10@@Z
	??$move@AAPAVthread@std@@@std@@YA$$QAPAVthread@0@AAPAV10@@Z
	??$move@AAUPair@cpr@@@std@@YA$$QAUPair@cpr@@AAU12@@Z
	??$move@AAUParameter@cpr@@@std@@YA$$QAUParameter@cpr@@AAU12@@Z
	??$move@AAUcurl_forms@@@std@@YA$$QAUcurl_forms@@AAU1@@Z
	??$move@AAV?$_Func_class@XW4InfoType@DebugCallback@cpr@@V?$basic_string@DU?$char_traits@D@std@@V?$allocator@D@2@@std@@H@std@@@std@@YA$$QAV?$_Func_class@XW4InfoType@DebugCallback@cpr@@V?$basic_string@DU?$char_traits@D@std@@V?$allocator@D@2@@std@@H@0@AAV10@@Z
	??$move@AAV?$_Func_class@_NPADAAIH@std@@@std@@YA$$QAV?$_Func_class@_NPADAAIH@0@AAV10@@Z
	??$move@AAV?$_Func_class@_NV?$basic_string@DU?$char_traits@D@std@@V?$allocator@D@2@@std@@H@std@@@std@@YA$$QAV?$_Func_class@_NV?$basic_string@DU?$char_traits@D@std@@V?$allocator@D@2@@std@@H@0@AAV10@@Z
	??$move@AAV?$_Func_class@_N_J_J_J_JH@std@@@std@@YA$$QAV?$_Func_class@_N_J_J_J_JH@0@AAV10@@Z
	??$move@AAV?$allocator@D@std@@@std@@YA$$QAV?$allocator@D@0@AAV10@@Z
	??$move@AAV?$allocator@U?$_Tree_node@U?$pair@$$CBV?$basic_string@DU?$char_traits@D@std@@V?$allocator@D@2@@std@@V12@@std@@PAX@std@@@std@@@std@@YA$$QAV?$allocator@U?$_Tree_node@U?$pair@$$CBV?$basic_string@DU?$char_traits@D@std@@V?$allocator@D@2@@std@@V12@@std@@PAX@std@@@0@AAV10@@Z
	??$move@AAV?$allocator@U?$_Tree_node@U?$pair@$$CBV?$basic_string@DU?$char_traits@D@std@@V?$allocator@D@2@@std@@VEncodedAuthentication@cpr@@@std@@PAX@std@@@std@@@std@@YA$$QAV?$allocator@U?$_Tree_node@U?$pair@$$CBV?$basic_string@DU?$char_traits@D@std@@V?$allocator@D@2@@std@@VEncodedAuthentication@cpr@@@std@@PAX@std@@@0@AAV10@@Z
	??$move@AAV?$allocator@UParameter@cpr@@@std@@@std@@YA$$QAV?$allocator@UParameter@cpr@@@0@AAV10@@Z
	??$move@AAV?$allocator@V?$basic_string@DU?$char_traits@D@std@@V?$allocator@D@2@@std@@@std@@@std@@YA$$QAV?$allocator@V?$basic_string@DU?$char_traits@D@std@@V?$allocator@D@2@@std@@@0@AAV10@@Z
	??$move@AAV?$allocator@VCertInfo@cpr@@@std@@@std@@YA$$QAV?$allocator@VCertInfo@cpr@@@0@AAV10@@Z
	??$move@AAV?$allocator@VCookie@cpr@@@std@@@std@@YA$$QAV?$allocator@VCookie@cpr@@@0@AAV10@@Z
	??$move@AAV?$basic_istream@DU?$char_traits@D@std@@@std@@@std@@YA$$QAV?$basic_istream@DU?$char_traits@D@std@@@0@AAV10@@Z
	??$move@AAV?$basic_string@DU?$char_traits@D@std@@V?$allocator@D@2@@std@@@std@@YA$$QAV?$basic_string@DU?$char_traits@D@std@@V?$allocator@D@2@@0@AAV10@@Z
	??$move@AAV?$function@$$A6AXXZ@std@@@std@@YA$$QAV?$function@$$A6AXXZ@0@AAV10@@Z
	??$move@AAV?$future@VResponse@cpr@@@std@@@std@@YA$$QAV?$future@VResponse@cpr@@@0@AAV10@@Z
	??$move@AAV?$map@V?$basic_string@DU?$char_traits@D@std@@V?$allocator@D@2@@std@@V12@U?$less@V?$basic_string@DU?$char_traits@D@std@@V?$allocator@D@2@@std@@@2@V?$allocator@U?$pair@$$CBV?$basic_string@DU?$char_traits@D@std@@V?$allocator@D@2@@std@@V12@@std@@@2@@std@@@std@@YA$$QAV?$map@V?$basic_string@DU?$char_traits@D@std@@V?$allocator@D@2@@std@@V12@U?$less@V?$basic_string@DU?$char_traits@D@std@@V?$allocator@D@2@@std@@@2@V?$allocator@U?$pair@$$CBV?$basic_string@DU?$char_traits@D@std@@V?$allocator@D@2@@std@@V12@@std@@@2@@0@AAV10@@Z
	??$move@AAV?$map@V?$basic_string@DU?$char_traits@D@std@@V?$allocator@D@2@@std@@V12@UCaseInsensitiveCompare@cpr@@V?$allocator@U?$pair@$$CBV?$basic_string@DU?$char_traits@D@std@@V?$allocator@D@2@@std@@V12@@std@@@2@@std@@@std@@YA$$QAV?$map@V?$basic_string@DU?$char_traits@D@std@@V?$allocator@D@2@@std@@V12@UCaseInsensitiveCompare@cpr@@V?$allocator@U?$pair@$$CBV?$basic_string@DU?$char_traits@D@std@@V?$allocator@D@2@@std@@V12@@std@@@2@@0@AAV10@@Z
	??$move@AAV?$map@V?$basic_string@DU?$char_traits@D@std@@V?$allocator@D@2@@std@@VEncodedAuthentication@cpr@@U?$less@V?$basic_string@DU?$char_traits@D@std@@V?$allocator@D@2@@std@@@2@V?$allocator@U?$pair@$$CBV?$basic_string@DU?$char_traits@D@std@@V?$allocator@D@2@@std@@VEncodedAuthentication@cpr@@@std@@@2@@std@@@std@@YA$$QAV?$map@V?$basic_string@DU?$char_traits@D@std@@V?$allocator@D@2@@std@@VEncodedAuthentication@cpr@@U?$less@V?$basic_string@DU?$char_traits@D@std@@V?$allocator@D@2@@std@@@2@V?$allocator@U?$pair@$$CBV?$basic_string@DU?$char_traits@D@std@@V?$allocator@D@2@@std@@VEncodedAuthentication@cpr@@@std@@@2@@0@AAV10@@Z
	??$move@AAV?$shared_ptr@UCurlHolder@cpr@@@std@@@std@@YA$$QAV?$shared_ptr@UCurlHolder@cpr@@@0@AAV10@@Z
	??$move@AAV?$shared_ptr@V?$packaged_task@$$A6A?AVResponse@cpr@@XZ@std@@@std@@@std@@YA$$QAV?$shared_ptr@V?$packaged_task@$$A6A?AVResponse@cpr@@XZ@std@@@0@AAV10@@Z
	??$move@AAV?$shared_ptr@VSession@cpr@@@std@@@std@@YA$$QAV?$shared_ptr@VSession@cpr@@@0@AAV10@@Z
	??$move@AAV?$shared_ptr@Vthread@std@@@std@@@std@@YA$$QAV?$shared_ptr@Vthread@std@@@0@AAV10@@Z
	??$move@AAV?$tuple@$$QAV?$basic_string@DU?$char_traits@D@std@@V?$allocator@D@2@@std@@@std@@@std@@YA$$QAV?$tuple@$$QAV?$basic_string@DU?$char_traits@D@std@@V?$allocator@D@2@@std@@@0@AAV10@@Z
	??$move@AAV?$tuple@ABV?$basic_string@DU?$char_traits@D@std@@V?$allocator@D@2@@std@@@std@@@std@@YA$$QAV?$tuple@ABV?$basic_string@DU?$char_traits@D@std@@V?$allocator@D@2@@std@@@0@AAV10@@Z
	??$move@AAVAcceptEncoding@cpr@@@std@@YA$$QAVAcceptEncoding@cpr@@AAV12@@Z
	??$move@AAVBody@cpr@@@std@@YA$$QAVBody@cpr@@AAV12@@Z
	??$move@AAVCertInfo@cpr@@@std@@YA$$QAVCertInfo@cpr@@AAV12@@Z
	??$move@AAVCookie@cpr@@@std@@YA$$QAVCookie@cpr@@AAV12@@Z
	??$move@AAVCookies@cpr@@@std@@YA$$QAVCookies@cpr@@AAV12@@Z
	??$move@AAVError@cpr@@@std@@YA$$QAVError@cpr@@AAV12@@Z
	??$move@AAVMultipart@cpr@@@std@@YA$$QAVMultipart@cpr@@AAV12@@Z
	??$move@AAVParameters@cpr@@@std@@YA$$QAVParameters@cpr@@AAV12@@Z
	??$move@AAVPayload@cpr@@@std@@YA$$QAVPayload@cpr@@AAV12@@Z
	??$move@AAVProxies@cpr@@@std@@YA$$QAVProxies@cpr@@AAV12@@Z
	??$move@AAVProxyAuthentication@cpr@@@std@@YA$$QAVProxyAuthentication@cpr@@AAV12@@Z
	??$move@ABUPair@cpr@@@std@@YA$$QBUPair@cpr@@ABU12@@Z
	??$move@ABUParameter@cpr@@@std@@YA$$QBUParameter@cpr@@ABU12@@Z
	??$next@PAUParameter@cpr@@@std@@YAPAUParameter@cpr@@PAU12@H@Z
	??$next@PAV?$basic_string@DU?$char_traits@D@std@@V?$allocator@D@2@@std@@@std@@YAPAV?$basic_string@DU?$char_traits@D@std@@V?$allocator@D@2@@0@PAV10@H@Z
	??$next@V?$_Vector_const_iterator@V?$_Vector_val@U?$_Simple_types@V?$basic_string@DU?$char_traits@D@std@@V?$allocator@D@2@@std@@@std@@@std@@@std@@@std@@YA?AV?$_Vector_const_iterator@V?$_Vector_val@U?$_Simple_types@V?$basic_string@DU?$char_traits@D@std@@V?$allocator@D@2@@std@@@std@@@std@@@0@V10@H@Z
	??$put_time@D@std@@YA?AU?$_Timeobj@DPBUtm@@@0@PBUtm@@PBD@Z
	??$swap@I$0A@@std@@YAXAAI0@Z
	??$swap@PAU?$_Tree_node@U?$pair@$$CBV?$basic_string@DU?$char_traits@D@std@@V?$allocator@D@2@@std@@V12@@std@@PAX@std@@$0A@@std@@YAXAAPAU?$_Tree_node@U?$pair@$$CBV?$basic_string@DU?$char_traits@D@std@@V?$allocator@D@2@@std@@V12@@std@@PAX@0@0@Z
	??$swap@PAU?$_Tree_node@U?$pair@$$CBV?$basic_string@DU?$char_traits@D@std@@V?$allocator@D@2@@std@@VEncodedAuthentication@cpr@@@std@@PAX@std@@$0A@@std@@YAXAAPAU?$_Tree_node@U?$pair@$$CBV?$basic_string@DU?$char_traits@D@std@@V?$allocator@D@2@@std@@VEncodedAuthentication@cpr@@@std@@PAX@0@0@Z
	??$swap@PAUCurlHolder@cpr@@$0A@@std@@YAXAAPAUCurlHolder@cpr@@0@Z
	??$swap@PAV_Ref_count_base@std@@$0A@@std@@YAXAAPAV_Ref_count_base@0@0@Z
	??$swap@PAVthread@std@@$0A@@std@@YAXAAPAVthread@0@0@Z
	??$transform@PBUPair@cpr@@V?$back_insert_iterator@V?$vector@UPair@cpr@@V?$allocator@UPair@cpr@@@std@@@std@@@std@@V<lambda_45c76c3991057d85dfb5ae8b54d43d42>@@@std@@YA?AV?$back_insert_iterator@V?$vector@UPair@cpr@@V?$allocator@UPair@cpr@@@std@@@std@@@0@QBUPair@cpr@@0V10@V<lambda_45c76c3991057d85dfb5ae8b54d43d42>@@@Z
	??$transform@PBUParameter@cpr@@V?$back_insert_iterator@V?$vector@UParameter@cpr@@V?$allocator@UParameter@cpr@@@std@@@std@@@std@@V<lambda_6c2dd1c1a78057eb452ab161656ae1e8>@@@std@@YA?AV?$back_insert_iterator@V?$vector@UParameter@cpr@@V?$allocator@UParameter@cpr@@@std@@@std@@@0@QBUParameter@cpr@@0V10@V<lambda_6c2dd1c1a78057eb452ab161656ae1e8>@@@Z
	??$uninitialized_copy@PAPAV?$function@$$A6AXXZ@std@@PAPAV12@@std@@YAPAPAV?$function@$$A6AXXZ@0@QAPAV10@0PAPAV10@@Z
	??$uninitialized_copy@PAPAV?$shared_ptr@VInterceptor@cpr@@@std@@PAPAV12@@std@@YAPAPAV?$shared_ptr@VInterceptor@cpr@@@0@QAPAV10@0PAPAV10@@Z
	??$use_facet@V?$time_put@DV?$ostreambuf_iterator@DU?$char_traits@D@std@@@std@@@std@@@std@@YAABV?$time_put@DV?$ostreambuf_iterator@DU?$char_traits@D@std@@@std@@@0@ABVlocale@0@@Z
	??0?$CurlContainer@UPair@cpr@@@cpr@@QAE@ABV?$initializer_list@UPair@cpr@@@std@@@Z
	??0?$CurlContainer@UParameter@cpr@@@cpr@@QAE@ABV?$initializer_list@UParameter@cpr@@@std@@@Z
	??0?$CurlContainer@UParameter@cpr@@@cpr@@QAE@XZ
	??0?$StringHolder@VUrl@cpr@@@cpr@@QAE@$$QAV?$basic_string@DU?$char_traits@D@std@@V?$allocator@D@2@@std@@@Z
	??0?$StringHolder@VUrl@cpr@@@cpr@@QAE@PBD@Z
	??0?$StringHolder@VUrl@cpr@@@cpr@@QAE@XZ
	??0?$_Alloc_construct_ptr@V?$allocator@U?$_List_node@UThreadData@ThreadPool@cpr@@PAX@std@@@std@@@std@@QAE@AAV?$allocator@U?$_List_node@UThreadData@ThreadPool@cpr@@PAX@std@@@1@@Z
	??0?$_Alloc_construct_ptr@V?$allocator@U?$_Tree_node@U?$pair@$$CBV?$basic_string@DU?$char_traits@D@std@@V?$allocator@D@2@@std@@V12@@std@@PAX@std@@@std@@@std@@QAE@AAV?$allocator@U?$_Tree_node@U?$pair@$$CBV?$basic_string@DU?$char_traits@D@std@@V?$allocator@D@2@@std@@V12@@std@@PAX@std@@@1@@Z
	??0?$_Alloc_construct_ptr@V?$allocator@U?$_Tree_node@U?$pair@$$CBV?$basic_string@DU?$char_traits@D@std@@V?$allocator@D@2@@std@@VEncodedAuthentication@cpr@@@std@@PAX@std@@@std@@@std@@QAE@AAV?$allocator@U?$_Tree_node@U?$pair@$$CBV?$basic_string@DU?$char_traits@D@std@@V?$allocator@D@2@@std@@VEncodedAuthentication@cpr@@@std@@PAX@std@@@1@@Z
	??0?$_Alloc_construct_ptr@V?$allocator@U?$_Tree_node@U?$pair@$$CBW4AcceptEncodingMethods@cpr@@V?$basic_string@DU?$char_traits@D@std@@V?$allocator@D@2@@std@@@std@@PAX@std@@@std@@@std@@QAE@AAV?$allocator@U?$_Tree_node@U?$pair@$$CBW4AcceptEncodingMethods@cpr@@V?$basic_string@DU?$char_traits@D@std@@V?$allocator@D@2@@std@@@std@@PAX@std@@@1@@Z
	??0?$_Associated_state@VResponse@cpr@@@std@@QAE@PAU?$_Deleter_base@VResponse@cpr@@@1@@Z
	??0?$_Atomic_integral@I$03@std@@QAE@I@Z
	??0?$_Atomic_integral_facade@I@std@@QAE@I@Z
	??0?$_Atomic_storage@I$03@std@@QAE@I@Z
	??0?$_Atomic_storage@W4Status@ThreadPool@cpr@@$03@std@@QAE@W4Status@ThreadPool@cpr@@@Z
	??0?$_Container_proxy_ptr12@V?$allocator@U_Container_proxy@std@@@std@@@std@@QAE@AAV?$allocator@U_Container_proxy@std@@@1@AAU_Container_base12@1@@Z
	??0?$_Deque_unchecked_const_iterator@V?$_Deque_val@U?$_Deque_simple_types@V?$function@$$A6AXXZ@std@@@std@@@std@@@std@@QAE@IPBU_Container_base12@1@@Z
	??0?$_Deque_unchecked_const_iterator@V?$_Deque_val@U?$_Deque_simple_types@V?$shared_ptr@VInterceptor@cpr@@@std@@@std@@@std@@@std@@QAE@IPBU_Container_base12@1@@Z
	??0?$_Deque_unchecked_iterator@V?$_Deque_val@U?$_Deque_simple_types@V?$function@$$A6AXXZ@std@@@std@@@std@@@std@@QAE@IPBU_Container_base12@1@@Z
	??0?$_Deque_unchecked_iterator@V?$_Deque_val@U?$_Deque_simple_types@V?$shared_ptr@VInterceptor@cpr@@@std@@@std@@@std@@@std@@QAE@IPBU_Container_base12@1@@Z
	??0?$_Deque_val@U?$_Deque_simple_types@V?$function@$$A6AXXZ@std@@@std@@@std@@QAE@XZ
	??0?$_Deque_val@U?$_Deque_simple_types@V?$shared_ptr@VInterceptor@cpr@@@std@@@std@@@std@@QAE@XZ
	??0?$_Func_base@VResponse@cpr@@$$V@std@@QAE@XZ
	??0?$_Func_base@X$$V@std@@QAE@XZ
	??0?$_Func_class@VResponse@cpr@@$$V@std@@QAE@XZ
	??0?$_Func_class@X$$V@std@@QAE@XZ
	??0?$_Func_class@XW4InfoType@DebugCallback@cpr@@V?$basic_string@DU?$char_traits@D@std@@V?$allocator@D@2@@std@@H@std@@QAE@XZ
	??0?$_Func_class@_NPADAAIH@std@@QAE@XZ
	??0?$_Func_class@_NV?$basic_string@DU?$char_traits@D@std@@V?$allocator@D@2@@std@@H@std@@QAE@XZ
	??0?$_Func_class@_N_J_J_J_JH@std@@QAE@XZ
	??0?$_List_const_iterator@V?$_List_val@U?$_List_simple_types@UThreadData@ThreadPool@cpr@@@std@@@std@@@std@@QAE@ABV01@@Z
	??0?$_List_const_iterator@V?$_List_val@U?$_List_simple_types@UThreadData@ThreadPool@cpr@@@std@@@std@@@std@@QAE@PAU?$_List_node@UThreadData@ThreadPool@cpr@@PAX@1@PBV?$_List_val@U?$_List_simple_types@UThreadData@ThreadPool@cpr@@@std@@@1@@Z
	??0?$_List_iterator@V?$_List_val@U?$_List_simple_types@UThreadData@ThreadPool@cpr@@@std@@@std@@@std@@QAE@PAU?$_List_node@UThreadData@ThreadPool@cpr@@PAX@1@PBV?$_List_val@U?$_List_simple_types@UThreadData@ThreadPool@cpr@@@std@@@1@@Z
	??0?$_List_unchecked_const_iterator@V?$_List_val@U?$_List_simple_types@UThreadData@ThreadPool@cpr@@@std@@@std@@U_Iterator_base0@2@@std@@QAE@PAU?$_List_node@UThreadData@ThreadPool@cpr@@PAX@1@PBV?$_List_val@U?$_List_simple_types@UThreadData@ThreadPool@cpr@@@std@@@1@@Z
	??0?$_List_unchecked_const_iterator@V?$_List_val@U?$_List_simple_types@UThreadData@ThreadPool@cpr@@@std@@@std@@U_Iterator_base12@2@@std@@QAE@ABV01@@Z
	??0?$_List_unchecked_const_iterator@V?$_List_val@U?$_List_simple_types@UThreadData@ThreadPool@cpr@@@std@@@std@@U_Iterator_base12@2@@std@@QAE@PAU?$_List_node@UThreadData@ThreadPool@cpr@@PAX@1@PBV?$_List_val@U?$_List_simple_types@UThreadData@ThreadPool@cpr@@@std@@@1@@Z
	??0?$_List_unchecked_iterator@V?$_List_val@U?$_List_simple_types@UThreadData@ThreadPool@cpr@@@std@@@std@@@std@@QAE@PAU?$_List_node@UThreadData@ThreadPool@cpr@@PAX@1@PBV?$_List_val@U?$_List_simple_types@UThreadData@ThreadPool@cpr@@@std@@@1@@Z
	??0?$_List_val@U?$_List_simple_types@UThreadData@ThreadPool@cpr@@@std@@@std@@QAE@XZ
	??0?$_Promise@VResponse@cpr@@@std@@QAE@PAV?$_Associated_state@VResponse@cpr@@@1@@Z
	??0?$_Ptr_base@UCurlHolder@cpr@@@std@@IAE@XZ
	??0?$_Ptr_base@V?$packaged_task@$$A6A?AVResponse@cpr@@XZ@std@@@std@@IAE@XZ
	??0?$_Ptr_base@VInterceptor@cpr@@@std@@IAE@XZ
	??0?$_Ptr_base@VSession@cpr@@@std@@IAE@XZ
	??0?$_Ptr_base@Vthread@std@@@std@@IAE@XZ
	??0?$_Ref_count@UCurlHolder@cpr@@@std@@QAE@PAUCurlHolder@cpr@@@Z
	??0?$_Ref_count@Vthread@std@@@std@@QAE@PAVthread@1@@Z
	??0?$_State_manager@VResponse@cpr@@@std@@QAE@$$QAV01@_N@Z
	??0?$_State_manager@VResponse@cpr@@@std@@QAE@ABV01@_N@Z
	??0?$_State_manager@VResponse@cpr@@@std@@QAE@PAV?$_Associated_state@VResponse@cpr@@@1@_N@Z
	??0?$_String_bitmap@D$00@std@@QAE@XZ
	??0?$_String_const_iterator@V?$_String_val@U?$_Simple_types@D@std@@@std@@@std@@QAE@$$QAV01@@Z
	??0?$_String_const_iterator@V?$_String_val@U?$_Simple_types@D@std@@@std@@@std@@QAE@PBDPBU_Container_base12@1@@Z
	??0?$_String_iterator@V?$_String_val@U?$_Simple_types@D@std@@@std@@@std@@QAE@$$QAV01@@Z
	??0?$_String_iterator@V?$_String_val@U?$_Simple_types@D@std@@@std@@@std@@QAE@PBDPBU_Container_base12@1@@Z
	??0?$_String_val@U?$_Simple_types@D@std@@@std@@QAE@XZ
	??0?$_Temporary_owner@UCurlHolder@cpr@@@std@@QAE@QAUCurlHolder@cpr@@@Z
	??0?$_Temporary_owner@Vthread@std@@@std@@QAE@QAVthread@1@@Z
	??0?$_Timeobj@DPBUtm@@@std@@QAE@PBUtm@@PBD@Z
	??0?$_Tree@V?$_Tmap_traits@V?$basic_string@DU?$char_traits@D@std@@V?$allocator@D@2@@std@@V12@U?$less@V?$basic_string@DU?$char_traits@D@std@@V?$allocator@D@2@@std@@@2@V?$allocator@U?$pair@$$CBV?$basic_string@DU?$char_traits@D@std@@V?$allocator@D@2@@std@@V12@@std@@@2@$0A@@std@@@std@@QAE@ABU?$less@V?$basic_string@DU?$char_traits@D@std@@V?$allocator@D@2@@std@@@1@@Z
	??0?$_Tree@V?$_Tmap_traits@V?$basic_string@DU?$char_traits@D@std@@V?$allocator@D@2@@std@@V12@UCaseInsensitiveCompare@cpr@@V?$allocator@U?$pair@$$CBV?$basic_string@DU?$char_traits@D@std@@V?$allocator@D@2@@std@@V12@@std@@@2@$0A@@std@@@std@@QAE@$$QAV01@@Z
	??0?$_Tree@V?$_Tmap_traits@V?$basic_string@DU?$char_traits@D@std@@V?$allocator@D@2@@std@@V12@UCaseInsensitiveCompare@cpr@@V?$allocator@U?$pair@$$CBV?$basic_string@DU?$char_traits@D@std@@V?$allocator@D@2@@std@@V12@@std@@@2@$0A@@std@@@std@@QAE@ABUCaseInsensitiveCompare@cpr@@@Z
	??0?$_Tree@V?$_Tmap_traits@V?$basic_string@DU?$char_traits@D@std@@V?$allocator@D@2@@std@@VEncodedAuthentication@cpr@@U?$less@V?$basic_string@DU?$char_traits@D@std@@V?$allocator@D@2@@std@@@2@V?$allocator@U?$pair@$$CBV?$basic_string@DU?$char_traits@D@std@@V?$allocator@D@2@@std@@VEncodedAuthentication@cpr@@@std@@@2@$0A@@std@@@std@@QAE@ABU?$less@V?$basic_string@DU?$char_traits@D@std@@V?$allocator@D@2@@std@@@1@@Z
	??0?$_Tree@V?$_Tmap_traits@W4AcceptEncodingMethods@cpr@@V?$basic_string@DU?$char_traits@D@std@@V?$allocator@D@2@@std@@U?$less@W4AcceptEncodingMethods@cpr@@@4@V?$allocator@U?$pair@$$CBW4AcceptEncodingMethods@cpr@@V?$basic_string@DU?$char_traits@D@std@@V?$allocator@D@2@@std@@@std@@@4@$0A@@std@@@std@@QAE@ABU?$less@W4AcceptEncodingMethods@cpr@@@1@@Z
	??0?$_Tree_const_iterator@V?$_Tree_val@U?$_Tree_simple_types@U?$pair@$$CBV?$basic_string@DU?$char_traits@D@std@@V?$allocator@D@2@@std@@V12@@std@@@std@@@std@@@std@@QAE@PAU?$_Tree_node@U?$pair@$$CBV?$basic_string@DU?$char_traits@D@std@@V?$allocator@D@2@@std@@V12@@std@@PAX@1@PBV?$_Tree_val@U?$_Tree_simple_types@U?$pair@$$CBV?$basic_string@DU?$char_traits@D@std@@V?$allocator@D@2@@std@@V12@@std@@@std@@@1@@Z
	??0?$_Tree_iterator@V?$_Tree_val@U?$_Tree_simple_types@U?$pair@$$CBV?$basic_string@DU?$char_traits@D@std@@V?$allocator@D@2@@std@@V12@@std@@@std@@@std@@@std@@QAE@PAU?$_Tree_node@U?$pair@$$CBV?$basic_string@DU?$char_traits@D@std@@V?$allocator@D@2@@std@@V12@@std@@PAX@1@PBV?$_Tree_val@U?$_Tree_simple_types@U?$pair@$$CBV?$basic_string@DU?$char_traits@D@std@@V?$allocator@D@2@@std@@V12@@std@@@std@@@1@@Z
	??0?$_Tree_temp_node_alloc@V?$allocator@U?$_Tree_node@U?$pair@$$CBV?$basic_string@DU?$char_traits@D@std@@V?$allocator@D@2@@std@@V12@@std@@PAX@std@@@std@@@std@@QAE@AAV?$allocator@U?$_Tree_node@U?$pair@$$CBV?$basic_string@DU?$char_traits@D@std@@V?$allocator@D@2@@std@@V12@@std@@PAX@std@@@1@@Z
	??0?$_Tree_temp_node_alloc@V?$allocator@U?$_Tree_node@U?$pair@$$CBV?$basic_string@DU?$char_traits@D@std@@V?$allocator@D@2@@std@@VEncodedAuthentication@cpr@@@std@@PAX@std@@@std@@@std@@QAE@AAV?$allocator@U?$_Tree_node@U?$pair@$$CBV?$basic_string@DU?$char_traits@D@std@@V?$allocator@D@2@@std@@VEncodedAuthentication@cpr@@@std@@PAX@std@@@1@@Z
	??0?$_Tree_temp_node_alloc@V?$allocator@U?$_Tree_node@U?$pair@$$CBW4AcceptEncodingMethods@cpr@@V?$basic_string@DU?$char_traits@D@std@@V?$allocator@D@2@@std@@@std@@PAX@std@@@std@@@std@@QAE@AAV?$allocator@U?$_Tree_node@U?$pair@$$CBW4AcceptEncodingMethods@cpr@@V?$basic_string@DU?$char_traits@D@std@@V?$allocator@D@2@@std@@@std@@PAX@std@@@1@@Z
	??0?$_Tree_unchecked_const_iterator@V?$_Tree_val@U?$_Tree_simple_types@U?$pair@$$CBV?$basic_string@DU?$char_traits@D@std@@V?$allocator@D@2@@std@@V12@@std@@@std@@@std@@U_Iterator_base0@2@@std@@QAE@PAU?$_Tree_node@U?$pair@$$CBV?$basic_string@DU?$char_traits@D@std@@V?$allocator@D@2@@std@@V12@@std@@PAX@1@PBV?$_Tree_val@U?$_Tree_simple_types@U?$pair@$$CBV?$basic_string@DU?$char_traits@D@std@@V?$allocator@D@2@@std@@V12@@std@@@std@@@1@@Z
	??0?$_Tree_unchecked_const_iterator@V?$_Tree_val@U?$_Tree_simple_types@U?$pair@$$CBV?$basic_string@DU?$char_traits@D@std@@V?$allocator@D@2@@std@@V12@@std@@@std@@@std@@U_Iterator_base12@2@@std@@QAE@PAU?$_Tree_node@U?$pair@$$CBV?$basic_string@DU?$char_traits@D@std@@V?$allocator@D@2@@std@@V12@@std@@PAX@1@PBV?$_Tree_val@U?$_Tree_simple_types@U?$pair@$$CBV?$basic_string@DU?$char_traits@D@std@@V?$allocator@D@2@@std@@V12@@std@@@std@@@1@@Z
	??0?$_Tree_unchecked_const_iterator@V?$_Tree_val@U?$_Tree_simple_types@U?$pair@$$CBW4AcceptEncodingMethods@cpr@@V?$basic_string@DU?$char_traits@D@std@@V?$allocator@D@2@@std@@@std@@@std@@@std@@U_Iterator_base0@2@@std@@QAE@PAU?$_Tree_node@U?$pair@$$CBW4AcceptEncodingMethods@cpr@@V?$basic_string@DU?$char_traits@D@std@@V?$allocator@D@2@@std@@@std@@PAX@1@PBV?$_Tree_val@U?$_Tree_simple_types@U?$pair@$$CBW4AcceptEncodingMethods@cpr@@V?$basic_string@DU?$char_traits@D@std@@V?$allocator@D@2@@std@@@std@@@std@@@1@@Z
	??0?$_Tree_unchecked_iterator@V?$_Tree_val@U?$_Tree_simple_types@U?$pair@$$CBV?$basic_string@DU?$char_traits@D@std@@V?$allocator@D@2@@std@@V12@@std@@@std@@@std@@@std@@QAE@PAU?$_Tree_node@U?$pair@$$CBV?$basic_string@DU?$char_traits@D@std@@V?$allocator@D@2@@std@@V12@@std@@PAX@1@PBV?$_Tree_val@U?$_Tree_simple_types@U?$pair@$$CBV?$basic_string@DU?$char_traits@D@std@@V?$allocator@D@2@@std@@V12@@std@@@std@@@1@@Z
	??0?$_Tree_val@U?$_Tree_simple_types@U?$pair@$$CBV?$basic_string@DU?$char_traits@D@std@@V?$allocator@D@2@@std@@V12@@std@@@std@@@std@@QAE@XZ
	??0?$_Tree_val@U?$_Tree_simple_types@U?$pair@$$CBV?$basic_string@DU?$char_traits@D@std@@V?$allocator@D@2@@std@@VEncodedAuthentication@cpr@@@std@@@std@@@std@@QAE@XZ
	??0?$_Tree_val@U?$_Tree_simple_types@U?$pair@$$CBW4AcceptEncodingMethods@cpr@@V?$basic_string@DU?$char_traits@D@std@@V?$allocator@D@2@@std@@@std@@@std@@@std@@QAE@XZ
	??0?$_Uninitialized_backout@PAPAV?$function@$$A6AXXZ@std@@@std@@QAE@PAPAV?$function@$$A6AXXZ@1@@Z
	??0?$_Uninitialized_backout@PAPAV?$shared_ptr@VInterceptor@cpr@@@std@@@std@@QAE@PAPAV?$shared_ptr@VInterceptor@cpr@@@1@@Z
	??0?$_Uninitialized_backout_al@V?$allocator@UPair@cpr@@@std@@@std@@QAE@PAUPair@cpr@@AAV?$allocator@UPair@cpr@@@1@@Z
	??0?$_Uninitialized_backout_al@V?$allocator@UParameter@cpr@@@std@@@std@@QAE@PAUParameter@cpr@@AAV?$allocator@UParameter@cpr@@@1@@Z
	??0?$_Uninitialized_backout_al@V?$allocator@UPart@cpr@@@std@@@std@@QAE@PAUPart@cpr@@AAV?$allocator@UPart@cpr@@@1@@Z
	??0?$_Uninitialized_backout_al@V?$allocator@Ucurl_forms@@@std@@@std@@QAE@PAUcurl_forms@@AAV?$allocator@Ucurl_forms@@@1@@Z
	??0?$_Uninitialized_backout_al@V?$allocator@V?$basic_string@DU?$char_traits@D@std@@V?$allocator@D@2@@std@@@std@@@std@@QAE@PAV?$basic_string@DU?$char_traits@D@std@@V?$allocator@D@2@@1@AAV?$allocator@V?$basic_string@DU?$char_traits@D@std@@V?$allocator@D@2@@std@@@1@@Z
	??0?$_Uninitialized_backout_al@V?$allocator@VCertInfo@cpr@@@std@@@std@@QAE@PAVCertInfo@cpr@@AAV?$allocator@VCertInfo@cpr@@@1@@Z
	??0?$_Uninitialized_backout_al@V?$allocator@VCookie@cpr@@@std@@@std@@QAE@PAVCookie@cpr@@AAV?$allocator@VCookie@cpr@@@1@@Z
	??0?$_Vector_const_iterator@V?$_Vector_val@U?$_Simple_types@V?$basic_string@DU?$char_traits@D@std@@V?$allocator@D@2@@std@@@std@@@std@@@std@@QAE@$$QAV01@@Z
	??0?$_Vector_const_iterator@V?$_Vector_val@U?$_Simple_types@V?$basic_string@DU?$char_traits@D@std@@V?$allocator@D@2@@std@@@std@@@std@@@std@@QAE@PAV?$basic_string@DU?$char_traits@D@std@@V?$allocator@D@2@@1@PBU_Container_base12@1@@Z
	??0?$_Vector_const_iterator@V?$_Vector_val@U?$_Simple_types@VCookie@cpr@@@std@@@std@@@std@@QAE@PAVCookie@cpr@@PBU_Container_base12@1@@Z
	??0?$_Vector_iterator@V?$_Vector_val@U?$_Simple_types@V?$basic_string@DU?$char_traits@D@std@@V?$allocator@D@2@@std@@@std@@@std@@@std@@QAE@PAV?$basic_string@DU?$char_traits@D@std@@V?$allocator@D@2@@1@PBU_Container_base12@1@@Z
	??0?$_Vector_iterator@V?$_Vector_val@U?$_Simple_types@VCookie@cpr@@@std@@@std@@@std@@QAE@PAVCookie@cpr@@PBU_Container_base12@1@@Z
	??0?$_Vector_val@U?$_Simple_types@UPair@cpr@@@std@@@std@@QAE@XZ
	??0?$_Vector_val@U?$_Simple_types@UParameter@cpr@@@std@@@std@@QAE@XZ
	??0?$_Vector_val@U?$_Simple_types@UPart@cpr@@@std@@@std@@QAE@XZ
	??0?$_Vector_val@U?$_Simple_types@Ucurl_forms@@@std@@@std@@QAE@XZ
	??0?$_Vector_val@U?$_Simple_types@V?$basic_string@DU?$char_traits@D@std@@V?$allocator@D@2@@std@@@std@@@std@@QAE@PAV?$basic_string@DU?$char_traits@D@std@@V?$allocator@D@2@@1@00@Z
	??0?$_Vector_val@U?$_Simple_types@V?$basic_string@DU?$char_traits@D@std@@V?$allocator@D@2@@std@@@std@@@std@@QAE@XZ
	??0?$_Vector_val@U?$_Simple_types@VCertInfo@cpr@@@std@@@std@@QAE@PAVCertInfo@cpr@@00@Z
	??0?$_Vector_val@U?$_Simple_types@VCertInfo@cpr@@@std@@@std@@QAE@XZ
	??0?$_Vector_val@U?$_Simple_types@VCookie@cpr@@@std@@@std@@QAE@PAVCookie@cpr@@00@Z
	??0?$_Vector_val@U?$_Simple_types@VCookie@cpr@@@std@@@std@@QAE@XZ
	??0?$allocator@D@std@@QAE@XZ
	??0?$allocator@U?$_List_node@UThreadData@ThreadPool@cpr@@PAX@std@@@std@@QAE@XZ
	??0?$allocator@U?$_Tree_node@U?$pair@$$CBV?$basic_string@DU?$char_traits@D@std@@V?$allocator@D@2@@std@@V12@@std@@PAX@std@@@std@@QAE@XZ
	??0?$allocator@U?$_Tree_node@U?$pair@$$CBV?$basic_string@DU?$char_traits@D@std@@V?$allocator@D@2@@std@@VEncodedAuthentication@cpr@@@std@@PAX@std@@@std@@QAE@XZ
	??0?$allocator@U?$_Tree_node@U?$pair@$$CBW4AcceptEncodingMethods@cpr@@V?$basic_string@DU?$char_traits@D@std@@V?$allocator@D@2@@std@@@std@@PAX@std@@@std@@QAE@XZ
	??0?$allocator@UPair@cpr@@@std@@QAE@XZ
	??0?$allocator@UParameter@cpr@@@std@@QAE@XZ
	??0?$allocator@UPart@cpr@@@std@@QAE@XZ
	??0?$allocator@Ucurl_forms@@@std@@QAE@XZ
	??0?$allocator@V?$basic_string@DU?$char_traits@D@std@@V?$allocator@D@2@@std@@@std@@QAE@XZ
	??0?$allocator@V?$function@$$A6AXXZ@std@@@std@@QAE@XZ
	??0?$allocator@V?$shared_ptr@VInterceptor@cpr@@@std@@@std@@QAE@XZ
	??0?$allocator@VCertInfo@cpr@@@std@@QAE@XZ
	??0?$allocator@VCookie@cpr@@@std@@QAE@XZ
	??0?$atomic@I@std@@QAE@I@Z
	??0?$atomic@W4Status@ThreadPool@cpr@@@std@@QAE@W4Status@ThreadPool@cpr@@@Z
	??0?$back_insert_iterator@V?$vector@UPair@cpr@@V?$allocator@UPair@cpr@@@std@@@std@@@std@@QAE@AAV?$vector@UPair@cpr@@V?$allocator@UPair@cpr@@@std@@@1@@Z
	??0?$back_insert_iterator@V?$vector@UParameter@cpr@@V?$allocator@UParameter@cpr@@@std@@@std@@@std@@QAE@AAV?$vector@UParameter@cpr@@V?$allocator@UParameter@cpr@@@std@@@1@@Z
	??0?$back_insert_iterator@V?$vector@V?$basic_string@DU?$char_traits@D@std@@V?$allocator@D@2@@std@@V?$allocator@V?$basic_string@DU?$char_traits@D@std@@V?$allocator@D@2@@std@@@2@@std@@@std@@QAE@AAV?$vector@V?$basic_string@DU?$char_traits@D@std@@V?$allocator@D@2@@std@@V?$allocator@V?$basic_string@DU?$char_traits@D@std@@V?$allocator@D@2@@std@@@2@@1@@Z
	??0?$basic_istringstream@DU?$char_traits@D@std@@V?$allocator@D@2@@std@@QAE@ABV?$basic_string@DU?$char_traits@D@std@@V?$allocator@D@2@@1@H@Z
	??0?$basic_string@DU?$char_traits@D@std@@V?$allocator@D@2@@std@@QAE@$$QAV01@@Z
	??0?$basic_string@DU?$char_traits@D@std@@V?$allocator@D@2@@std@@QAE@ABV01@@Z
	??0?$basic_string@DU?$char_traits@D@std@@V?$allocator@D@2@@std@@QAE@ABV01@IIABV?$allocator@D@1@@Z
	??0?$basic_string@DU?$char_traits@D@std@@V?$allocator@D@2@@std@@QAE@ABV?$allocator@D@1@@Z
	??0?$basic_string@DU?$char_traits@D@std@@V?$allocator@D@2@@std@@QAE@QBD@Z
	??0?$basic_string@DU?$char_traits@D@std@@V?$allocator@D@2@@std@@QAE@QBDI@Z
	??0?$basic_string@DU?$char_traits@D@std@@V?$allocator@D@2@@std@@QAE@U_String_constructor_concat_tag@1@AAV01@1@Z
	??0?$basic_string@DU?$char_traits@D@std@@V?$allocator@D@2@@std@@QAE@U_String_constructor_concat_tag@1@ABV01@QBDI2I@Z
	??0?$basic_string@DU?$char_traits@D@std@@V?$allocator@D@2@@std@@QAE@XZ
	??0?$basic_stringbuf@DU?$char_traits@D@std@@V?$allocator@D@2@@std@@QAE@ABV?$basic_string@DU?$char_traits@D@std@@V?$allocator@D@2@@1@H@Z
	??0?$basic_stringbuf@DU?$char_traits@D@std@@V?$allocator@D@2@@std@@QAE@H@Z
	??0?$basic_stringstream@DU?$char_traits@D@std@@V?$allocator@D@2@@std@@QAE@ABV?$basic_string@DU?$char_traits@D@std@@V?$allocator@D@2@@1@H@Z
	??0?$basic_stringstream@DU?$char_traits@D@std@@V?$allocator@D@2@@std@@QAE@XZ
	??0?$deque@V?$function@$$A6AXXZ@std@@V?$allocator@V?$function@$$A6AXXZ@std@@@2@@std@@QAE@XZ
	??0?$deque@V?$shared_ptr@VInterceptor@cpr@@@std@@V?$allocator@V?$shared_ptr@VInterceptor@cpr@@@std@@@2@@std@@QAE@XZ
	??0?$enable_shared_from_this@VSession@cpr@@@std@@IAE@XZ
	??0?$fpos@U_Mbstatet@@@std@@QAE@_J@Z
	??0?$function@$$A6AXW4InfoType@DebugCallback@cpr@@V?$basic_string@DU?$char_traits@D@std@@V?$allocator@D@2@@std@@H@Z@std@@QAE@ABV01@@Z
	??0?$function@$$A6AXW4InfoType@DebugCallback@cpr@@V?$basic_string@DU?$char_traits@D@std@@V?$allocator@D@2@@std@@H@Z@std@@QAE@XZ
	??0?$function@$$A6AXXZ@std@@QAE@XZ
	??0?$function@$$A6A_NPADAAIH@Z@std@@QAE@ABV01@@Z
	??0?$function@$$A6A_NPADAAIH@Z@std@@QAE@XZ
	??0?$function@$$A6A_NV?$basic_string@DU?$char_traits@D@std@@V?$allocator@D@2@@std@@H@Z@std@@QAE@ABV01@@Z
	??0?$function@$$A6A_NV?$basic_string@DU?$char_traits@D@std@@V?$allocator@D@2@@std@@H@Z@std@@QAE@XZ
	??0?$function@$$A6A_N_J000H@Z@std@@QAE@ABV01@@Z
	??0?$function@$$A6A_N_J000H@Z@std@@QAE@XZ
	??0?$future@VResponse@cpr@@@std@@QAE@$$QAV01@@Z
	??0?$future@VResponse@cpr@@@std@@QAE@ABV?$_State_manager@VResponse@cpr@@@1@U_Nil@1@@Z
	??0?$initializer_list@U?$pair@$$CBW4AcceptEncodingMethods@cpr@@V?$basic_string@DU?$char_traits@D@std@@V?$allocator@D@2@@std@@@std@@@std@@QAE@PBU?$pair@$$CBW4AcceptEncodingMethods@cpr@@V?$basic_string@DU?$char_traits@D@std@@V?$allocator@D@2@@std@@@1@0@Z
	??0?$list@UThreadData@ThreadPool@cpr@@V?$allocator@UThreadData@ThreadPool@cpr@@@std@@@std@@QAE@XZ
	??0?$lock_guard@Vmutex@std@@@std@@QAE@AAVmutex@1@@Z
	??0?$map@V?$basic_string@DU?$char_traits@D@std@@V?$allocator@D@2@@std@@V12@U?$less@V?$basic_string@DU?$char_traits@D@std@@V?$allocator@D@2@@std@@@2@V?$allocator@U?$pair@$$CBV?$basic_string@DU?$char_traits@D@std@@V?$allocator@D@2@@std@@V12@@std@@@2@@std@@QAE@V?$initializer_list@U?$pair@$$CBV?$basic_string@DU?$char_traits@D@std@@V?$allocator@D@2@@std@@V12@@std@@@1@@Z
	??0?$map@V?$basic_string@DU?$char_traits@D@std@@V?$allocator@D@2@@std@@V12@U?$less@V?$basic_string@DU?$char_traits@D@std@@V?$allocator@D@2@@std@@@2@V?$allocator@U?$pair@$$CBV?$basic_string@DU?$char_traits@D@std@@V?$allocator@D@2@@std@@V12@@std@@@2@@std@@QAE@XZ
	??0?$map@V?$basic_string@DU?$char_traits@D@std@@V?$allocator@D@2@@std@@V12@UCaseInsensitiveCompare@cpr@@V?$allocator@U?$pair@$$CBV?$basic_string@DU?$char_traits@D@std@@V?$allocator@D@2@@std@@V12@@std@@@2@@std@@QAE@$$QAV01@@Z
	??0?$map@V?$basic_string@DU?$char_traits@D@std@@V?$allocator@D@2@@std@@V12@UCaseInsensitiveCompare@cpr@@V?$allocator@U?$pair@$$CBV?$basic_string@DU?$char_traits@D@std@@V?$allocator@D@2@@std@@V12@@std@@@2@@std@@QAE@XZ
	??0?$map@V?$basic_string@DU?$char_traits@D@std@@V?$allocator@D@2@@std@@VEncodedAuthentication@cpr@@U?$less@V?$basic_string@DU?$char_traits@D@std@@V?$allocator@D@2@@std@@@2@V?$allocator@U?$pair@$$CBV?$basic_string@DU?$char_traits@D@std@@V?$allocator@D@2@@std@@VEncodedAuthentication@cpr@@@std@@@2@@std@@QAE@XZ
	??0?$map@W4AcceptEncodingMethods@cpr@@V?$basic_string@DU?$char_traits@D@std@@V?$allocator@D@2@@std@@U?$less@W4AcceptEncodingMethods@cpr@@@4@V?$allocator@U?$pair@$$CBW4AcceptEncodingMethods@cpr@@V?$basic_string@DU?$char_traits@D@std@@V?$allocator@D@2@@std@@@std@@@4@@std@@QAE@V?$initializer_list@U?$pair@$$CBW4AcceptEncodingMethods@cpr@@V?$basic_string@DU?$char_traits@D@std@@V?$allocator@D@2@@std@@@std@@@1@@Z
	??0?$ostreambuf_iterator@DU?$char_traits@D@std@@@std@@QAE@PAV?$basic_streambuf@DU?$char_traits@D@std@@@1@@Z
	??0?$pair@$$CBV?$basic_string@DU?$char_traits@D@std@@V?$allocator@D@2@@std@@V12@@std@@QAE@ABU01@@Z
	??0?$pair@$$CBV?$basic_string@DU?$char_traits@D@std@@V?$allocator@D@2@@std@@VEncodedAuthentication@cpr@@@std@@QAE@ABU01@@Z
	??0?$pair@$$CBW4AcceptEncodingMethods@cpr@@V?$basic_string@DU?$char_traits@D@std@@V?$allocator@D@2@@std@@@std@@QAE@ABU01@@Z
	??0?$queue@V?$function@$$A6AXXZ@std@@V?$deque@V?$function@$$A6AXXZ@std@@V?$allocator@V?$function@$$A6AXXZ@std@@@2@@2@@std@@QAE@XZ
	??0?$queue@V?$shared_ptr@VInterceptor@cpr@@@std@@V?$deque@V?$shared_ptr@VInterceptor@cpr@@@std@@V?$allocator@V?$shared_ptr@VInterceptor@cpr@@@std@@@2@@2@@std@@QAE@XZ
	??0?$shared_ptr@UCurlHolder@cpr@@@std@@QAE@$$QAV01@@Z
	??0?$shared_ptr@UCurlHolder@cpr@@@std@@QAE@$$T@Z
	??0?$shared_ptr@UCurlHolder@cpr@@@std@@QAE@ABV01@@Z
	??0?$shared_ptr@V?$packaged_task@$$A6A?AVResponse@cpr@@XZ@std@@@std@@QAE@$$QAV01@@Z
	??0?$shared_ptr@V?$packaged_task@$$A6A?AVResponse@cpr@@XZ@std@@@std@@QAE@ABV01@@Z
	??0?$shared_ptr@V?$packaged_task@$$A6A?AVResponse@cpr@@XZ@std@@@std@@QAE@XZ
	??0?$shared_ptr@VInterceptor@cpr@@@std@@QAE@ABV01@@Z
	??0?$shared_ptr@VSession@cpr@@@std@@QAE@$$QAV01@@Z
	??0?$shared_ptr@VSession@cpr@@@std@@QAE@ABV01@@Z
	??0?$shared_ptr@Vthread@std@@@std@@QAE@$$QAV01@@Z
	??0?$shared_ptr@Vthread@std@@@std@@QAE@ABV01@@Z
	??0?$shared_ptr@Vthread@std@@@std@@QAE@XZ
	??0?$time_point@Usteady_clock@chrono@std@@V?$duration@_JU?$ratio@$00$0DLJKMKAA@@std@@@23@@chrono@std@@QAE@ABV?$duration@_JU?$ratio@$00$0DLJKMKAA@@std@@@12@@Z
	??0?$time_point@Usystem_clock@chrono@std@@V?$duration@_JU?$ratio@$00$0JIJGIA@@std@@@23@@chrono@std@@QAE@ABV?$duration@_JU?$ratio@$00$0JIJGIA@@std@@@12@@Z
	??0?$tuple@$$QAV?$basic_string@DU?$char_traits@D@std@@V?$allocator@D@2@@std@@@std@@QAE@$$QAV01@@Z
	??0?$tuple@$$V@std@@QAE@ABV01@@Z
	??0?$tuple@ABV?$basic_string@DU?$char_traits@D@std@@V?$allocator@D@2@@std@@@std@@QAE@$$QAV01@@Z
	??0?$unique_lock@Vmutex@std@@@std@@QAE@AAVmutex@1@@Z
	??0?$vector@UPair@cpr@@V?$allocator@UPair@cpr@@@std@@@std@@QAE@V?$initializer_list@UPair@cpr@@@1@ABV?$allocator@UPair@cpr@@@1@@Z
	??0?$vector@UParameter@cpr@@V?$allocator@UParameter@cpr@@@std@@@std@@QAE@V?$initializer_list@UParameter@cpr@@@1@ABV?$allocator@UParameter@cpr@@@1@@Z
	??0?$vector@UParameter@cpr@@V?$allocator@UParameter@cpr@@@std@@@std@@QAE@XZ
	??0?$vector@UPart@cpr@@V?$allocator@UPart@cpr@@@std@@@std@@QAE@V?$initializer_list@UPart@cpr@@@1@ABV?$allocator@UPart@cpr@@@1@@Z
	??0?$vector@Ucurl_forms@@V?$allocator@Ucurl_forms@@@std@@@std@@QAE@XZ
	??0?$vector@V?$basic_string@DU?$char_traits@D@std@@V?$allocator@D@2@@std@@V?$allocator@V?$basic_string@DU?$char_traits@D@std@@V?$allocator@D@2@@std@@@2@@std@@QAE@$$QAV01@@Z
	??0?$vector@V?$basic_string@DU?$char_traits@D@std@@V?$allocator@D@2@@std@@V?$allocator@V?$basic_string@DU?$char_traits@D@std@@V?$allocator@D@2@@std@@@2@@std@@QAE@ABV01@@Z
	??0?$vector@V?$basic_string@DU?$char_traits@D@std@@V?$allocator@D@2@@std@@V?$allocator@V?$basic_string@DU?$char_traits@D@std@@V?$allocator@D@2@@std@@@2@@std@@QAE@V?$initializer_list@V?$basic_string@DU?$char_traits@D@std@@V?$allocator@D@2@@std@@@1@ABV?$allocator@V?$basic_string@DU?$char_traits@D@std@@V?$allocator@D@2@@std@@@1@@Z
	??0?$vector@V?$basic_string@DU?$char_traits@D@std@@V?$allocator@D@2@@std@@V?$allocator@V?$basic_string@DU?$char_traits@D@std@@V?$allocator@D@2@@std@@@2@@std@@QAE@XZ
	??0?$vector@VCertInfo@cpr@@V?$allocator@VCertInfo@cpr@@@std@@@std@@QAE@$$QAV01@@Z
	??0?$vector@VCertInfo@cpr@@V?$allocator@VCertInfo@cpr@@@std@@@std@@QAE@XZ
	??0?$vector@VCookie@cpr@@V?$allocator@VCookie@cpr@@@std@@@std@@QAE@$$QAV01@@Z
	??0?$vector@VCookie@cpr@@V?$allocator@VCookie@cpr@@@std@@@std@@QAE@XZ
	??0?$weak_ptr@VSession@cpr@@@std@@QAE@XZ
	??0AcceptEncoding@cpr@@QAE@ABV?$initializer_list@V?$basic_string@DU?$char_traits@D@std@@V?$allocator@D@2@@std@@@std@@@Z
	??0AcceptEncoding@cpr@@QAE@ABV?$initializer_list@W4AcceptEncodingMethods@cpr@@@std@@@Z
	??0AcceptEncoding@cpr@@QAE@XZ
	??0CertInfo@cpr@@QAE@ABV01@@Z
	??0CertInfo@cpr@@QAE@XZ
	??0Cookie@cpr@@QAE@$$QAV01@@Z
	??0Cookie@cpr@@QAE@ABV01@@Z
	??0Cookie@cpr@@QAE@ABV?$basic_string@DU?$char_traits@D@std@@V?$allocator@D@2@@std@@00_N01V?$time_point@Usystem_clock@chrono@std@@V?$duration@_JU?$ratio@$00$0JIJGIA@@std@@@23@@chrono@3@@Z
	??0Cookies@cpr@@QAE@$$QAV01@@Z
	??0Cookies@cpr@@QAE@_N@Z
	??0CurlHolder@cpr@@QAE@XZ
	??0DebugCallback@cpr@@QAE@XZ
	??0EncodedAuthentication@cpr@@QAE@ABV01@@Z
	??0EncodedAuthentication@cpr@@QAE@XZ
	??0Error@cpr@@QAE@$$QAV01@@Z
	??0Error@cpr@@QAE@ABH$$QAV?$basic_string@DU?$char_traits@D@std@@V?$allocator@D@2@@std@@@Z
	??0Error@cpr@@QAE@XZ
	??0GlobalThreadPool@cpr@@IAE@XZ
	??0HeaderCallback@cpr@@QAE@XZ
	??0Multipart@cpr@@QAE@ABV?$initializer_list@UPart@cpr@@@std@@@Z
	??0Pair@cpr@@QAE@$$QAU01@@Z
	??0Pair@cpr@@QAE@ABU01@@Z
	??0Parameter@cpr@@QAE@$$QAU01@@Z
	??0Parameter@cpr@@QAE@ABU01@@Z
	??0Parameters@cpr@@QAE@ABV?$initializer_list@UParameter@cpr@@@std@@@Z
	??0Parameters@cpr@@QAE@XZ
	??0Part@cpr@@QAE@ABU01@@Z
	??0Payload@cpr@@QAE@ABV?$initializer_list@UPair@cpr@@@std@@@Z
	??0ProgressCallback@cpr@@QAE@XZ
	??0Proxies@cpr@@QAE@ABV?$initializer_list@U?$pair@$$CBV?$basic_string@DU?$char_traits@D@std@@V?$allocator@D@2@@std@@V12@@std@@@std@@@Z
	??0Proxies@cpr@@QAE@XZ
	??0ProxyAuthentication@cpr@@QAE@XZ
	??0ReadCallback@cpr@@QAE@XZ
	??0Redirect@cpr@@QAE@XZ
	??0ReserveSize@cpr@@QAE@I@Z
	??0Response@cpr@@QAE@V?$shared_ptr@UCurlHolder@cpr@@@std@@$$QAV?$basic_string@DU?$char_traits@D@std@@V?$allocator@D@2@@3@1$$QAVCookies@1@$$QAVError@1@@Z
	??0Response@cpr@@QAE@XZ
	??0Session@cpr@@QAE@XZ
	??0ThreadData@ThreadPool@cpr@@QAE@ABU012@@Z
	??0ThreadData@ThreadPool@cpr@@QAE@XZ
	??0ThreadPool@cpr@@QAE@IIV?$duration@_JU?$ratio@$00$0DOI@@std@@@chrono@std@@@Z
	??0Url@cpr@@QAE@$$QAV?$basic_string@DU?$char_traits@D@std@@V?$allocator@D@2@@std@@@Z
	??0Url@cpr@@QAE@PBD@Z
	??0Url@cpr@@QAE@XZ
	??0WriteCallback@cpr@@QAE@ABV01@@Z
	??0WriteCallback@cpr@@QAE@XZ
	??0_Basic_container_proxy_ptr12@std@@IAE@XZ
	??0_Bxty@?$_String_val@U?$_Simple_types@D@std@@@std@@QAE@XZ
	??0_Container_base12@std@@QAE@XZ
	??0_Container_proxy@std@@QAE@PAU_Container_base12@1@@Z
	??0_Iterator_base12@std@@QAE@ABU01@@Z
	??0_Iterator_base12@std@@QAE@XZ
	??0_Mutex_base@std@@QAE@H@Z
	??0_Ref_count_base@std@@IAE@XZ
	??0_Sentry_base@?$basic_istream@DU?$char_traits@D@std@@@std@@QAE@AAV12@@Z
	??0_Sentry_base@?$basic_ostream@DU?$char_traits@D@std@@@std@@QAE@AAV12@@Z
	??0bad_alloc@std@@AAE@QBD@Z
	??0bad_alloc@std@@QAE@ABV01@@Z
	??0bad_array_new_length@std@@QAE@ABV01@@Z
	??0bad_array_new_length@std@@QAE@XZ
	??0bad_cast@std@@QAE@ABV01@@Z
	??0bad_cast@std@@QAE@XZ
	??0bad_weak_ptr@std@@QAE@ABV01@@Z
	??0bad_weak_ptr@std@@QAE@XZ
	??0condition_variable@std@@QAE@XZ
	??0error_code@std@@QAE@HABVerror_category@1@@Z
	??0error_condition@std@@QAE@HABVerror_category@1@@Z
	??0exception@std@@QAE@ABV01@@Z
	??0exception@std@@QAE@QBD@Z
	??0exception@std@@QAE@QBDH@Z
	??0exception@std@@QAE@XZ
	??0exception_ptr@std@@QAE@ABV01@@Z
	??0exception_ptr@std@@QAE@XZ
	??0future_error@std@@QAE@ABV01@@Z
	??0future_error@std@@QAE@Verror_code@1@@Z
	??0future_error@std@@QAE@W4future_errc@1@@Z
	??0id@thread@std@@AAE@I@Z
	??0id@thread@std@@QAE@XZ
	??0invalid_argument@std@@QAE@ABV01@@Z
	??0invalid_argument@std@@QAE@PBD@Z
	??0logic_error@std@@QAE@ABV01@@Z
	??0logic_error@std@@QAE@PBD@Z
	??0mutex@std@@QAE@XZ
	??0overflow_error@std@@QAE@ABV01@@Z
	??0overflow_error@std@@QAE@ABV?$basic_string@DU?$char_traits@D@std@@V?$allocator@D@2@@1@@Z
	??0runtime_error@std@@QAE@ABV01@@Z
	??0runtime_error@std@@QAE@PBD@Z
	??0sentry@?$basic_istream@DU?$char_traits@D@std@@@std@@QAE@AAV12@_N@Z
	??0sentry@?$basic_ostream@DU?$char_traits@D@std@@@std@@QAE@AAV12@@Z
	??0underflow_error@std@@QAE@ABV01@@Z
	??0underflow_error@std@@QAE@ABV?$basic_string@DU?$char_traits@D@std@@V?$allocator@D@2@@1@@Z
	??1?$CurlContainer@UParameter@cpr@@@cpr@@QAE@XZ
	??1?$StringHolder@VUrl@cpr@@@cpr@@UAE@XZ
	??1?$_Alloc_construct_ptr@V?$allocator@U?$_List_node@UThreadData@ThreadPool@cpr@@PAX@std@@@std@@@std@@QAE@XZ
	??1?$_Alloc_construct_ptr@V?$allocator@U?$_Tree_node@U?$pair@$$CBV?$basic_string@DU?$char_traits@D@std@@V?$allocator@D@2@@std@@V12@@std@@PAX@std@@@std@@@std@@QAE@XZ
	??1?$_Alloc_construct_ptr@V?$allocator@U?$_Tree_node@U?$pair@$$CBV?$basic_string@DU?$char_traits@D@std@@V?$allocator@D@2@@std@@VEncodedAuthentication@cpr@@@std@@PAX@std@@@std@@@std@@QAE@XZ
	??1?$_Alloc_construct_ptr@V?$allocator@U?$_Tree_node@U?$pair@$$CBW4AcceptEncodingMethods@cpr@@V?$basic_string@DU?$char_traits@D@std@@V?$allocator@D@2@@std@@@std@@PAX@std@@@std@@@std@@QAE@XZ
	??1?$_Associated_state@VResponse@cpr@@@std@@UAE@XZ
	??1?$_Compressed_pair@V?$allocator@D@std@@V?$_String_val@U?$_Simple_types@D@std@@@2@$00@std@@QAE@XZ
	??1?$_Container_proxy_ptr12@V?$allocator@U_Container_proxy@std@@@std@@@std@@QAE@XZ
	??1?$_Func_class@VResponse@cpr@@$$V@std@@QAE@XZ
	??1?$_Func_class@X$$V@std@@QAE@XZ
	??1?$_Func_class@XW4InfoType@DebugCallback@cpr@@V?$basic_string@DU?$char_traits@D@std@@V?$allocator@D@2@@std@@H@std@@QAE@XZ
	??1?$_Func_class@_NPADAAIH@std@@QAE@XZ
	??1?$_Func_class@_NV?$basic_string@DU?$char_traits@D@std@@V?$allocator@D@2@@std@@H@std@@QAE@XZ
	??1?$_Func_class@_N_J_J_J_JH@std@@QAE@XZ
	??1?$_List_const_iterator@V?$_List_val@U?$_List_simple_types@UThreadData@ThreadPool@cpr@@@std@@@std@@@std@@QAE@XZ
	??1?$_List_iterator@V?$_List_val@U?$_List_simple_types@UThreadData@ThreadPool@cpr@@@std@@@std@@@std@@QAE@XZ
	??1?$_List_node_emplace_op2@V?$allocator@U?$_List_node@UThreadData@ThreadPool@cpr@@PAX@std@@@std@@@std@@QAE@XZ
	??1?$_List_unchecked_const_iterator@V?$_List_val@U?$_List_simple_types@UThreadData@ThreadPool@cpr@@@std@@@std@@U_Iterator_base12@2@@std@@QAE@XZ
	??1?$_Packaged_state@$$A6A?AVResponse@cpr@@XZ@std@@UAE@XZ
	??1?$_Promise@VResponse@cpr@@@std@@QAE@XZ
	??1?$_Ref_count@UCurlHolder@cpr@@@std@@UAE@XZ
	??1?$_Ref_count@Vthread@std@@@std@@UAE@XZ
	??1?$_Ref_count_obj2@V?$packaged_task@$$A6A?AVResponse@cpr@@XZ@std@@@std@@UAE@XZ
	??1?$_State_manager@VResponse@cpr@@@std@@QAE@XZ
	??1?$_String_const_iterator@V?$_String_val@U?$_Simple_types@D@std@@@std@@@std@@QAE@XZ
	??1?$_String_iterator@V?$_String_val@U?$_Simple_types@D@std@@@std@@@std@@QAE@XZ
	??1?$_String_val@U?$_Simple_types@D@std@@@std@@QAE@XZ
	??1?$_Temporary_owner@UCurlHolder@cpr@@@std@@QAE@XZ
	??1?$_Temporary_owner@Vthread@std@@@std@@QAE@XZ
	??1?$_Tidy_guard@V?$vector@UPair@cpr@@V?$allocator@UPair@cpr@@@std@@@std@@@std@@QAE@XZ
	??1?$_Tidy_guard@V?$vector@UParameter@cpr@@V?$allocator@UParameter@cpr@@@std@@@std@@@std@@QAE@XZ
	??1?$_Tidy_guard@V?$vector@UPart@cpr@@V?$allocator@UPart@cpr@@@std@@@std@@@std@@QAE@XZ
	??1?$_Tidy_guard@V?$vector@V?$basic_string@DU?$char_traits@D@std@@V?$allocator@D@2@@std@@V?$allocator@V?$basic_string@DU?$char_traits@D@std@@V?$allocator@D@2@@std@@@2@@std@@@std@@QAE@XZ
	??1?$_Tree@V?$_Tmap_traits@V?$basic_string@DU?$char_traits@D@std@@V?$allocator@D@2@@std@@V12@U?$less@V?$basic_string@DU?$char_traits@D@std@@V?$allocator@D@2@@std@@@2@V?$allocator@U?$pair@$$CBV?$basic_string@DU?$char_traits@D@std@@V?$allocator@D@2@@std@@V12@@std@@@2@$0A@@std@@@std@@QAE@XZ
	??1?$_Tree@V?$_Tmap_traits@V?$basic_string@DU?$char_traits@D@std@@V?$allocator@D@2@@std@@V12@UCaseInsensitiveCompare@cpr@@V?$allocator@U?$pair@$$CBV?$basic_string@DU?$char_traits@D@std@@V?$allocator@D@2@@std@@V12@@std@@@2@$0A@@std@@@std@@QAE@XZ
	??1?$_Tree@V?$_Tmap_traits@V?$basic_string@DU?$char_traits@D@std@@V?$allocator@D@2@@std@@VEncodedAuthentication@cpr@@U?$less@V?$basic_string@DU?$char_traits@D@std@@V?$allocator@D@2@@std@@@2@V?$allocator@U?$pair@$$CBV?$basic_string@DU?$char_traits@D@std@@V?$allocator@D@2@@std@@VEncodedAuthentication@cpr@@@std@@@2@$0A@@std@@@std@@QAE@XZ
	??1?$_Tree@V?$_Tmap_traits@W4AcceptEncodingMethods@cpr@@V?$basic_string@DU?$char_traits@D@std@@V?$allocator@D@2@@std@@U?$less@W4AcceptEncodingMethods@cpr@@@4@V?$allocator@U?$pair@$$CBW4AcceptEncodingMethods@cpr@@V?$basic_string@DU?$char_traits@D@std@@V?$allocator@D@2@@std@@@std@@@4@$0A@@std@@@std@@QAE@XZ
	??1?$_Tree_const_iterator@V?$_Tree_val@U?$_Tree_simple_types@U?$pair@$$CBV?$basic_string@DU?$char_traits@D@std@@V?$allocator@D@2@@std@@V12@@std@@@std@@@std@@@std@@QAE@XZ
	??1?$_Tree_iterator@V?$_Tree_val@U?$_Tree_simple_types@U?$pair@$$CBV?$basic_string@DU?$char_traits@D@std@@V?$allocator@D@2@@std@@V12@@std@@@std@@@std@@@std@@QAE@XZ
	??1?$_Tree_temp_node@V?$allocator@U?$_Tree_node@U?$pair@$$CBV?$basic_string@DU?$char_traits@D@std@@V?$allocator@D@2@@std@@V12@@std@@PAX@std@@@std@@@std@@QAE@XZ
	??1?$_Tree_temp_node@V?$allocator@U?$_Tree_node@U?$pair@$$CBV?$basic_string@DU?$char_traits@D@std@@V?$allocator@D@2@@std@@VEncodedAuthentication@cpr@@@std@@PAX@std@@@std@@@std@@QAE@XZ
	??1?$_Tree_temp_node@V?$allocator@U?$_Tree_node@U?$pair@$$CBW4AcceptEncodingMethods@cpr@@V?$basic_string@DU?$char_traits@D@std@@V?$allocator@D@2@@std@@@std@@PAX@std@@@std@@@std@@QAE@XZ
	??1?$_Tree_temp_node_alloc@V?$allocator@U?$_Tree_node@U?$pair@$$CBV?$basic_string@DU?$char_traits@D@std@@V?$allocator@D@2@@std@@V12@@std@@PAX@std@@@std@@@std@@QAE@XZ
	??1?$_Tree_temp_node_alloc@V?$allocator@U?$_Tree_node@U?$pair@$$CBV?$basic_string@DU?$char_traits@D@std@@V?$allocator@D@2@@std@@VEncodedAuthentication@cpr@@@std@@PAX@std@@@std@@@std@@QAE@XZ
	??1?$_Tree_temp_node_alloc@V?$allocator@U?$_Tree_node@U?$pair@$$CBW4AcceptEncodingMethods@cpr@@V?$basic_string@DU?$char_traits@D@std@@V?$allocator@D@2@@std@@@std@@PAX@std@@@std@@@std@@QAE@XZ
	??1?$_Tree_unchecked_const_iterator@V?$_Tree_val@U?$_Tree_simple_types@U?$pair@$$CBV?$basic_string@DU?$char_traits@D@std@@V?$allocator@D@2@@std@@V12@@std@@@std@@@std@@U_Iterator_base12@2@@std@@QAE@XZ
	??1?$_Uninitialized_backout@PAPAV?$function@$$A6AXXZ@std@@@std@@QAE@XZ
	??1?$_Uninitialized_backout@PAPAV?$shared_ptr@VInterceptor@cpr@@@std@@@std@@QAE@XZ
	??1?$_Uninitialized_backout_al@V?$allocator@UPair@cpr@@@std@@@std@@QAE@XZ
	??1?$_Uninitialized_backout_al@V?$allocator@UParameter@cpr@@@std@@@std@@QAE@XZ
	??1?$_Uninitialized_backout_al@V?$allocator@UPart@cpr@@@std@@@std@@QAE@XZ
	??1?$_Uninitialized_backout_al@V?$allocator@Ucurl_forms@@@std@@@std@@QAE@XZ
	??1?$_Uninitialized_backout_al@V?$allocator@V?$basic_string@DU?$char_traits@D@std@@V?$allocator@D@2@@std@@@std@@@std@@QAE@XZ
	??1?$_Uninitialized_backout_al@V?$allocator@VCertInfo@cpr@@@std@@@std@@QAE@XZ
	??1?$_Uninitialized_backout_al@V?$allocator@VCookie@cpr@@@std@@@std@@QAE@XZ
	??1?$_Vector_const_iterator@V?$_Vector_val@U?$_Simple_types@V?$basic_string@DU?$char_traits@D@std@@V?$allocator@D@2@@std@@@std@@@std@@@std@@QAE@XZ
	??1?$basic_istringstream@DU?$char_traits@D@std@@V?$allocator@D@2@@std@@UAE@XZ
	??1?$basic_string@DU?$char_traits@D@std@@V?$allocator@D@2@@std@@QAE@XZ
	??1?$basic_stringbuf@DU?$char_traits@D@std@@V?$allocator@D@2@@std@@UAE@XZ
	??1?$basic_stringstream@DU?$char_traits@D@std@@V?$allocator@D@2@@std@@UAE@XZ
	??1?$deque@V?$function@$$A6AXXZ@std@@V?$allocator@V?$function@$$A6AXXZ@std@@@2@@std@@QAE@XZ
	??1?$deque@V?$shared_ptr@VInterceptor@cpr@@@std@@V?$allocator@V?$shared_ptr@VInterceptor@cpr@@@std@@@2@@std@@QAE@XZ
	??1?$enable_shared_from_this@VSession@cpr@@@std@@IAE@XZ
	??1?$function@$$A6A?AVResponse@cpr@@XZ@std@@QAE@XZ
	??1?$function@$$A6AXW4InfoType@DebugCallback@cpr@@V?$basic_string@DU?$char_traits@D@std@@V?$allocator@D@2@@std@@H@Z@std@@QAE@XZ
	??1?$function@$$A6AXXZ@std@@QAE@XZ
	??1?$function@$$A6A_NPADAAIH@Z@std@@QAE@XZ
	??1?$function@$$A6A_NV?$basic_string@DU?$char_traits@D@std@@V?$allocator@D@2@@std@@H@Z@std@@QAE@XZ
	??1?$function@$$A6A_N_J000H@Z@std@@QAE@XZ
	??1?$future@VResponse@cpr@@@std@@QAE@XZ
	??1?$list@UThreadData@ThreadPool@cpr@@V?$allocator@UThreadData@ThreadPool@cpr@@@std@@@std@@QAE@XZ
	??1?$lock_guard@Vmutex@std@@@std@@QAE@XZ
	??1?$map@V?$basic_string@DU?$char_traits@D@std@@V?$allocator@D@2@@std@@V12@U?$less@V?$basic_string@DU?$char_traits@D@std@@V?$allocator@D@2@@std@@@2@V?$allocator@U?$pair@$$CBV?$basic_string@DU?$char_traits@D@std@@V?$allocator@D@2@@std@@V12@@std@@@2@@std@@QAE@XZ
	??1?$map@V?$basic_string@DU?$char_traits@D@std@@V?$allocator@D@2@@std@@V12@UCaseInsensitiveCompare@cpr@@V?$allocator@U?$pair@$$CBV?$basic_string@DU?$char_traits@D@std@@V?$allocator@D@2@@std@@V12@@std@@@2@@std@@QAE@XZ
	??1?$map@V?$basic_string@DU?$char_traits@D@std@@V?$allocator@D@2@@std@@VEncodedAuthentication@cpr@@U?$less@V?$basic_string@DU?$char_traits@D@std@@V?$allocator@D@2@@std@@@2@V?$allocator@U?$pair@$$CBV?$basic_string@DU?$char_traits@D@std@@V?$allocator@D@2@@std@@VEncodedAuthentication@cpr@@@std@@@2@@std@@QAE@XZ
	??1?$map@W4AcceptEncodingMethods@cpr@@V?$basic_string@DU?$char_traits@D@std@@V?$allocator@D@2@@std@@U?$less@W4AcceptEncodingMethods@cpr@@@4@V?$allocator@U?$pair@$$CBW4AcceptEncodingMethods@cpr@@V?$basic_string@DU?$char_traits@D@std@@V?$allocator@D@2@@std@@@std@@@4@@std@@QAE@XZ
	??1?$packaged_task@$$A6A?AVResponse@cpr@@XZ@std@@QAE@XZ
	??1?$pair@$$CBV?$basic_string@DU?$char_traits@D@std@@V?$allocator@D@2@@std@@V12@@std@@QAE@XZ
	??1?$pair@$$CBV?$basic_string@DU?$char_traits@D@std@@V?$allocator@D@2@@std@@VEncodedAuthentication@cpr@@@std@@QAE@XZ
	??1?$pair@$$CBW4AcceptEncodingMethods@cpr@@V?$basic_string@DU?$char_traits@D@std@@V?$allocator@D@2@@std@@@std@@QAE@XZ
	??1?$queue@V?$function@$$A6AXXZ@std@@V?$deque@V?$function@$$A6AXXZ@std@@V?$allocator@V?$function@$$A6AXXZ@std@@@2@@2@@std@@QAE@XZ
	??1?$queue@V?$shared_ptr@VInterceptor@cpr@@@std@@V?$deque@V?$shared_ptr@VInterceptor@cpr@@@std@@V?$allocator@V?$shared_ptr@VInterceptor@cpr@@@std@@@2@@2@@std@@QAE@XZ
	??1?$shared_ptr@UCurlHolder@cpr@@@std@@QAE@XZ
	??1?$shared_ptr@V?$packaged_task@$$A6A?AVResponse@cpr@@XZ@std@@@std@@QAE@XZ
	??1?$shared_ptr@VInterceptor@cpr@@@std@@QAE@XZ
	??1?$shared_ptr@VSession@cpr@@@std@@QAE@XZ
	??1?$shared_ptr@Vthread@std@@@std@@QAE@XZ
	??1?$unique_lock@Vmutex@std@@@std@@QAE@XZ
	??1?$unique_ptr@V_Facet_base@std@@U?$default_delete@V_Facet_base@std@@@2@@std@@QAE@XZ
	??1?$vector@UParameter@cpr@@V?$allocator@UParameter@cpr@@@std@@@std@@QAE@XZ
	??1?$vector@Ucurl_forms@@V?$allocator@Ucurl_forms@@@std@@@std@@QAE@XZ
	??1?$vector@V?$basic_string@DU?$char_traits@D@std@@V?$allocator@D@2@@std@@V?$allocator@V?$basic_string@DU?$char_traits@D@std@@V?$allocator@D@2@@std@@@2@@std@@QAE@XZ
	??1?$vector@VCertInfo@cpr@@V?$allocator@VCertInfo@cpr@@@std@@@std@@QAE@XZ
	??1?$vector@VCookie@cpr@@V?$allocator@VCookie@cpr@@@std@@@std@@QAE@XZ
	??1?$weak_ptr@VSession@cpr@@@std@@QAE@XZ
	??1AcceptEncoding@cpr@@QAE@XZ
	??1Authentication@cpr@@QAE@XZ
	??1Bearer@cpr@@UAE@XZ
	??1CertInfo@cpr@@QAE@XZ
	??1Cookie@cpr@@QAE@XZ
	??1Cookies@cpr@@QAE@XZ
	??1CurlHolder@cpr@@QAE@XZ
	??1DebugCallback@cpr@@QAE@XZ
	??1EncodedAuthentication@cpr@@UAE@XZ
	??1Error@cpr@@QAE@XZ
	??1GlobalThreadPool@cpr@@MAE@XZ
	??1HeaderCallback@cpr@@QAE@XZ
	??1Pair@cpr@@QAE@XZ
	??1Parameter@cpr@@QAE@XZ
	??1Parameters@cpr@@QAE@XZ
	??1Part@cpr@@QAE@XZ
	??1ProgressCallback@cpr@@QAE@XZ
	??1Proxies@cpr@@QAE@XZ
	??1ProxyAuthentication@cpr@@QAE@XZ
	??1ReadCallback@cpr@@QAE@XZ
	??1Response@cpr@@QAE@XZ
	??1ThreadData@ThreadPool@cpr@@QAE@XZ
	??1ThreadPool@cpr@@UAE@XZ
	??1Url@cpr@@UAE@XZ
	??1WriteCallback@cpr@@QAE@XZ
	??1_Bxty@?$_String_val@U?$_Simple_types@D@std@@@std@@QAE@XZ
	??1_Future_error_category2@std@@UAE@XZ
	??1_Iterator_base12@std@@QAE@XZ
	??1_Mutex_base@std@@QAE@XZ
	??1_Ref_count_base@std@@UAE@XZ
	??1_Sentry_base@?$basic_istream@DU?$char_traits@D@std@@@std@@QAE@XZ
	??1_Sentry_base@?$basic_ostream@DU?$char_traits@D@std@@@std@@QAE@XZ
	??1bad_alloc@std@@UAE@XZ
	??1bad_array_new_length@std@@UAE@XZ
	??1bad_cast@std@@UAE@XZ
	??1bad_weak_ptr@std@@UAE@XZ
	??1condition_variable@std@@QAE@XZ
	??1error_category@std@@UAE@XZ
	??1exception@std@@UAE@XZ
	??1exception_ptr@std@@QAE@XZ
	??1future_error@std@@UAE@XZ
	??1invalid_argument@std@@UAE@XZ
	??1locale@std@@QAE@XZ
	??1logic_error@std@@UAE@XZ
	??1mutex@std@@QAE@XZ
	??1overflow_error@std@@UAE@XZ
	??1runtime_error@std@@UAE@XZ
	??1sentry@?$basic_istream@DU?$char_traits@D@std@@@std@@QAE@XZ
	??1sentry@?$basic_ostream@DU?$char_traits@D@std@@@std@@QAE@XZ
	??1thread@std@@QAE@XZ
	??1underflow_error@std@@UAE@XZ
	??2@YAPAXIPAX@Z
	??4?$CurlContainer@UParameter@cpr@@@cpr@@QAEAAV01@$$QAV01@@Z
	??4?$CurlContainer@UParameter@cpr@@@cpr@@QAEAAV01@ABV01@@Z
	??4?$StringHolder@VUrl@cpr@@@cpr@@QAEAAV01@$$QAV01@@Z
	??4?$StringHolder@VUrl@cpr@@@cpr@@QAEAAV01@ABV01@@Z
	??4?$_List_const_iterator@V?$_List_val@U?$_List_simple_types@UThreadData@ThreadPool@cpr@@@std@@@std@@@std@@QAEAAV01@$$QAV01@@Z
	??4?$_List_iterator@V?$_List_val@U?$_List_simple_types@UThreadData@ThreadPool@cpr@@@std@@@std@@@std@@QAEAAV01@$$QAV01@@Z
	??4?$_List_unchecked_const_iterator@V?$_List_val@U?$_List_simple_types@UThreadData@ThreadPool@cpr@@@std@@@std@@U_Iterator_base12@2@@std@@QAEAAV01@$$QAV01@@Z
	??4?$_Tree@V?$_Tmap_traits@V?$basic_string@DU?$char_traits@D@std@@V?$allocator@D@2@@std@@V12@U?$less@V?$basic_string@DU?$char_traits@D@std@@V?$allocator@D@2@@std@@@2@V?$allocator@U?$pair@$$CBV?$basic_string@DU?$char_traits@D@std@@V?$allocator@D@2@@std@@V12@@std@@@2@$0A@@std@@@std@@QAEAAV01@$$QAV01@@Z
	??4?$_Tree@V?$_Tmap_traits@V?$basic_string@DU?$char_traits@D@std@@V?$allocator@D@2@@std@@V12@U?$less@V?$basic_string@DU?$char_traits@D@std@@V?$allocator@D@2@@std@@@2@V?$allocator@U?$pair@$$CBV?$basic_string@DU?$char_traits@D@std@@V?$allocator@D@2@@std@@V12@@std@@@2@$0A@@std@@@std@@QAEAAV01@ABV01@@Z
	??4?$_Tree@V?$_Tmap_traits@V?$basic_string@DU?$char_traits@D@std@@V?$allocator@D@2@@std@@V12@UCaseInsensitiveCompare@cpr@@V?$allocator@U?$pair@$$CBV?$basic_string@DU?$char_traits@D@std@@V?$allocator@D@2@@std@@V12@@std@@@2@$0A@@std@@@std@@QAEAAV01@$$QAV01@@Z
	??4?$_Tree@V?$_Tmap_traits@V?$basic_string@DU?$char_traits@D@std@@V?$allocator@D@2@@std@@V12@UCaseInsensitiveCompare@cpr@@V?$allocator@U?$pair@$$CBV?$basic_string@DU?$char_traits@D@std@@V?$allocator@D@2@@std@@V12@@std@@@2@$0A@@std@@@std@@QAEAAV01@ABV01@@Z
	??4?$_Tree@V?$_Tmap_traits@V?$basic_string@DU?$char_traits@D@std@@V?$allocator@D@2@@std@@VEncodedAuthentication@cpr@@U?$less@V?$basic_string@DU?$char_traits@D@std@@V?$allocator@D@2@@std@@@2@V?$allocator@U?$pair@$$CBV?$basic_string@DU?$char_traits@D@std@@V?$allocator@D@2@@std@@VEncodedAuthentication@cpr@@@std@@@2@$0A@@std@@@std@@QAEAAV01@$$QAV01@@Z
	??4?$_Tree@V?$_Tmap_traits@V?$basic_string@DU?$char_traits@D@std@@V?$allocator@D@2@@std@@VEncodedAuthentication@cpr@@U?$less@V?$basic_string@DU?$char_traits@D@std@@V?$allocator@D@2@@std@@@2@V?$allocator@U?$pair@$$CBV?$basic_string@DU?$char_traits@D@std@@V?$allocator@D@2@@std@@VEncodedAuthentication@cpr@@@std@@@2@$0A@@std@@@std@@QAEAAV01@ABV01@@Z
	??4?$atomic@I@std@@QAEII@Z
	??4?$atomic@W4Status@ThreadPool@cpr@@@std@@QAE?AW4Status@ThreadPool@cpr@@W4234@@Z
	??4?$back_insert_iterator@V?$vector@UPair@cpr@@V?$allocator@UPair@cpr@@@std@@@std@@@std@@QAEAAV01@$$QAUPair@cpr@@@Z
	??4?$back_insert_iterator@V?$vector@UParameter@cpr@@V?$allocator@UParameter@cpr@@@std@@@std@@@std@@QAEAAV01@$$QAUParameter@cpr@@@Z
	??4?$back_insert_iterator@V?$vector@V?$basic_string@DU?$char_traits@D@std@@V?$allocator@D@2@@std@@V?$allocator@V?$basic_string@DU?$char_traits@D@std@@V?$allocator@D@2@@std@@@2@@std@@@std@@QAEAAV01@$$QAV?$basic_string@DU?$char_traits@D@std@@V?$allocator@D@2@@1@@Z
	??4?$basic_string@DU?$char_traits@D@std@@V?$allocator@D@2@@std@@QAEAAV01@$$QAV01@@Z
	??4?$basic_string@DU?$char_traits@D@std@@V?$allocator@D@2@@std@@QAEAAV01@ABV01@@Z
	??4?$function@$$A6AXW4InfoType@DebugCallback@cpr@@V?$basic_string@DU?$char_traits@D@std@@V?$allocator@D@2@@std@@H@Z@std@@QAEAAV01@ABV01@@Z
	??4?$function@$$A6AXXZ@std@@QAEAAV01@$$QAV01@@Z
	??4?$function@$$A6A_NPADAAIH@Z@std@@QAEAAV01@ABV01@@Z
	??4?$function@$$A6A_NV?$basic_string@DU?$char_traits@D@std@@V?$allocator@D@2@@std@@H@Z@std@@QAEAAV01@ABV01@@Z
	??4?$function@$$A6A_N_J000H@Z@std@@QAEAAV01@ABV01@@Z
	??4?$map@V?$basic_string@DU?$char_traits@D@std@@V?$allocator@D@2@@std@@V12@U?$less@V?$basic_string@DU?$char_traits@D@std@@V?$allocator@D@2@@std@@@2@V?$allocator@U?$pair@$$CBV?$basic_string@DU?$char_traits@D@std@@V?$allocator@D@2@@std@@V12@@std@@@2@@std@@QAEAAV01@$$QAV01@@Z
	??4?$map@V?$basic_string@DU?$char_traits@D@std@@V?$allocator@D@2@@std@@V12@U?$less@V?$basic_string@DU?$char_traits@D@std@@V?$allocator@D@2@@std@@@2@V?$allocator@U?$pair@$$CBV?$basic_string@DU?$char_traits@D@std@@V?$allocator@D@2@@std@@V12@@std@@@2@@std@@QAEAAV01@ABV01@@Z
	??4?$map@V?$basic_string@DU?$char_traits@D@std@@V?$allocator@D@2@@std@@V12@UCaseInsensitiveCompare@cpr@@V?$allocator@U?$pair@$$CBV?$basic_string@DU?$char_traits@D@std@@V?$allocator@D@2@@std@@V12@@std@@@2@@std@@QAEAAV01@$$QAV01@@Z
	??4?$map@V?$basic_string@DU?$char_traits@D@std@@V?$allocator@D@2@@std@@V12@UCaseInsensitiveCompare@cpr@@V?$allocator@U?$pair@$$CBV?$basic_string@DU?$char_traits@D@std@@V?$allocator@D@2@@std@@V12@@std@@@2@@std@@QAEAAV01@ABV01@@Z
	??4?$map@V?$basic_string@DU?$char_traits@D@std@@V?$allocator@D@2@@std@@VEncodedAuthentication@cpr@@U?$less@V?$basic_string@DU?$char_traits@D@std@@V?$allocator@D@2@@std@@@2@V?$allocator@U?$pair@$$CBV?$basic_string@DU?$char_traits@D@std@@V?$allocator@D@2@@std@@VEncodedAuthentication@cpr@@@std@@@2@@std@@QAEAAV01@$$QAV01@@Z
	??4?$map@V?$basic_string@DU?$char_traits@D@std@@V?$allocator@D@2@@std@@VEncodedAuthentication@cpr@@U?$less@V?$basic_string@DU?$char_traits@D@std@@V?$allocator@D@2@@std@@@2@V?$allocator@U?$pair@$$CBV?$basic_string@DU?$char_traits@D@std@@V?$allocator@D@2@@std@@VEncodedAuthentication@cpr@@@std@@@2@@std@@QAEAAV01@ABV01@@Z
	??4?$shared_ptr@UCurlHolder@cpr@@@std@@QAEAAV01@$$QAV01@@Z
	??4?$shared_ptr@Vthread@std@@@std@@QAEAAV01@$$QAV01@@Z
	??4?$vector@UParameter@cpr@@V?$allocator@UParameter@cpr@@@std@@@std@@QAEAAV01@$$QAV01@@Z
	??4?$vector@UParameter@cpr@@V?$allocator@UParameter@cpr@@@std@@@std@@QAEAAV01@ABV01@@Z
	??4?$vector@V?$basic_string@DU?$char_traits@D@std@@V?$allocator@D@2@@std@@V?$allocator@V?$basic_string@DU?$char_traits@D@std@@V?$allocator@D@2@@std@@@2@@std@@QAEAAV01@$$QAV01@@Z
	??4?$vector@V?$basic_string@DU?$char_traits@D@std@@V?$allocator@D@2@@std@@V?$allocator@V?$basic_string@DU?$char_traits@D@std@@V?$allocator@D@2@@std@@@2@@std@@QAEAAV01@ABV01@@Z
	??4?$vector@VCookie@cpr@@V?$allocator@VCookie@cpr@@@std@@@std@@QAEAAV01@$$QAV01@@Z
	??4AcceptEncoding@cpr@@QAEAAV01@$$QAV01@@Z
	??4AcceptEncoding@cpr@@QAEAAV01@ABV01@@Z
	??4Cookies@cpr@@QAEAAV01@$$QAV01@@Z
	??4DebugCallback@cpr@@QAEAAV01@ABV01@@Z
	??4Error@cpr@@QAEAAV01@$$QAV01@@Z
	??4HeaderCallback@cpr@@QAEAAV01@ABV01@@Z
	??4Parameter@cpr@@QAEAAU01@ABU01@@Z
	??4Parameters@cpr@@QAEAAV01@$$QAV01@@Z
	??4Parameters@cpr@@QAEAAV01@ABV01@@Z
	??4ProgressCallback@cpr@@QAEAAV01@ABV01@@Z
	??4Proxies@cpr@@QAEAAV01@$$QAV01@@Z
	??4Proxies@cpr@@QAEAAV01@ABV01@@Z
	??4ProxyAuthentication@cpr@@QAEAAV01@$$QAV01@@Z
	??4ProxyAuthentication@cpr@@QAEAAV01@ABV01@@Z
	??4ReadCallback@cpr@@QAEAAV01@ABV01@@Z
	??4Response@cpr@@QAEAAV01@$$QAV01@@Z
	??4Url@cpr@@QAEAAV01@$$QAV01@@Z
	??4Url@cpr@@QAEAAV01@ABV01@@Z
	??4WriteCallback@cpr@@QAEAAV01@ABV01@@Z
	??4_Iterator_base12@std@@QAEAAU01@ABU01@@Z
	??4exception_ptr@std@@QAEAAV01@ABV01@@Z
	??8?$_List_const_iterator@V?$_List_val@U?$_List_simple_types@UThreadData@ThreadPool@cpr@@@std@@@std@@@std@@QBE_NABV01@@Z
	??8?$_List_unchecked_const_iterator@V?$_List_val@U?$_List_simple_types@UThreadData@ThreadPool@cpr@@@std@@@std@@U_Iterator_base0@2@@std@@QBE_NABV01@@Z
	??8?$_Tree_const_iterator@V?$_Tree_val@U?$_Tree_simple_types@U?$pair@$$CBV?$basic_string@DU?$char_traits@D@std@@V?$allocator@D@2@@std@@V12@@std@@@std@@@std@@@std@@QBE_NABV01@@Z
	??8error_category@std@@QBE_NABV01@@Z
	??8std@@YA_NABVerror_condition@0@0@Z
	??8std@@YA_NABVexception_ptr@0@$$T@Z
	??8std@@YA_NVid@thread@0@0@Z
	??9?$_List_const_iterator@V?$_List_val@U?$_List_simple_types@UThreadData@ThreadPool@cpr@@@std@@@std@@@std@@QBE_NABV01@@Z
	??9?$_List_unchecked_const_iterator@V?$_List_val@U?$_List_simple_types@UThreadData@ThreadPool@cpr@@@std@@@std@@U_Iterator_base0@2@@std@@QBE_NABV01@@Z
	??9?$_Tree_unchecked_const_iterator@V?$_Tree_val@U?$_Tree_simple_types@U?$pair@$$CBV?$basic_string@DU?$char_traits@D@std@@V?$allocator@D@2@@std@@V12@@std@@@std@@@std@@U_Iterator_base0@2@@std@@QBE_NU_Default_sentinel@1@@Z
	??9std@@YA_NABVexception_ptr@0@$$T@Z
	??A?$array@D$0BAA@@std@@QAEAADI@Z
	??A?$basic_string@DU?$char_traits@D@std@@V?$allocator@D@2@@std@@QAEAADI@Z
	??A?$map@V?$basic_string@DU?$char_traits@D@std@@V?$allocator@D@2@@std@@V12@U?$less@V?$basic_string@DU?$char_traits@D@std@@V?$allocator@D@2@@std@@@2@V?$allocator@U?$pair@$$CBV?$basic_string@DU?$char_traits@D@std@@V?$allocator@D@2@@std@@V12@@std@@@2@@std@@QAEAAV?$basic_string@DU?$char_traits@D@std@@V?$allocator@D@2@@1@ABV21@@Z
	??A?$map@V?$basic_string@DU?$char_traits@D@std@@V?$allocator@D@2@@std@@V12@UCaseInsensitiveCompare@cpr@@V?$allocator@U?$pair@$$CBV?$basic_string@DU?$char_traits@D@std@@V?$allocator@D@2@@std@@V12@@std@@@2@@std@@QAEAAV?$basic_string@DU?$char_traits@D@std@@V?$allocator@D@2@@1@$$QAV21@@Z
	??A?$map@V?$basic_string@DU?$char_traits@D@std@@V?$allocator@D@2@@std@@V12@UCaseInsensitiveCompare@cpr@@V?$allocator@U?$pair@$$CBV?$basic_string@DU?$char_traits@D@std@@V?$allocator@D@2@@std@@V12@@std@@@2@@std@@QAEAAV?$basic_string@DU?$char_traits@D@std@@V?$allocator@D@2@@1@ABV21@@Z
	??A?$map@V?$basic_string@DU?$char_traits@D@std@@V?$allocator@D@2@@std@@VEncodedAuthentication@cpr@@U?$less@V?$basic_string@DU?$char_traits@D@std@@V?$allocator@D@2@@std@@@2@V?$allocator@U?$pair@$$CBV?$basic_string@DU?$char_traits@D@std@@V?$allocator@D@2@@std@@VEncodedAuthentication@cpr@@@std@@@2@@std@@QAEAAVEncodedAuthentication@cpr@@ABV?$basic_string@DU?$char_traits@D@std@@V?$allocator@D@2@@1@@Z
	??A?$vector@V?$basic_string@DU?$char_traits@D@std@@V?$allocator@D@2@@std@@V?$allocator@V?$basic_string@DU?$char_traits@D@std@@V?$allocator@D@2@@std@@@2@@std@@QAEAAV?$basic_string@DU?$char_traits@D@std@@V?$allocator@D@2@@1@I@Z
	??A?$vector@V?$basic_string@DU?$char_traits@D@std@@V?$allocator@D@2@@std@@V?$allocator@V?$basic_string@DU?$char_traits@D@std@@V?$allocator@D@2@@std@@@2@@std@@QBEABV?$basic_string@DU?$char_traits@D@std@@V?$allocator@D@2@@1@I@Z
	??A?$vector@VCookie@cpr@@V?$allocator@VCookie@cpr@@@std@@@std@@QAEAAVCookie@cpr@@I@Z
	??ACertInfo@cpr@@QAEAAV?$basic_string@DU?$char_traits@D@std@@V?$allocator@D@2@@std@@ABI@Z
	??ACookies@cpr@@QAEAAVCookie@1@I@Z
	??AProxies@cpr@@QAEABV?$basic_string@DU?$char_traits@D@std@@V?$allocator@D@2@@std@@ABV23@@Z
	??AProxyAuthentication@cpr@@QAEPBDABV?$basic_string@DU?$char_traits@D@std@@V?$allocator@D@2@@std@@@Z
	??B?$atomic@I@std@@QBEIXZ
	??B?$atomic@W4Status@ThreadPool@cpr@@@std@@QBE?AW4Status@ThreadPool@cpr@@XZ
	??B?$fpos@U_Mbstatet@@@std@@QBE_JXZ
	??B?$function@$$A6AXXZ@std@@QBE_NXZ
	??B?$function@$$A6A_NPADAAIH@Z@std@@QBE_NXZ
	??B?$function@$$A6A_NV?$basic_string@DU?$char_traits@D@std@@V?$allocator@D@2@@std@@H@Z@std@@QBE_NXZ
	??B?$shared_ptr@UCurlHolder@cpr@@@std@@QBE_NXZ
	??BVerifySsl@cpr@@QBE_NXZ
	??Bexception_ptr@std@@QBE_NXZ
	??Bsentry@?$basic_istream@DU?$char_traits@D@std@@@std@@QBE_NXZ
	??Bsentry@?$basic_ostream@DU?$char_traits@D@std@@@std@@QBE_NXZ
	??C?$_List_iterator@V?$_List_val@U?$_List_simple_types@UThreadData@ThreadPool@cpr@@@std@@@std@@@std@@QBEPAUThreadData@ThreadPool@cpr@@XZ
	??D?$_Deque_unchecked_const_iterator@V?$_Deque_val@U?$_Deque_simple_types@V?$function@$$A6AXXZ@std@@@std@@@std@@@std@@QBEABV?$function@$$A6AXXZ@1@XZ
	??D?$_Deque_unchecked_const_iterator@V?$_Deque_val@U?$_Deque_simple_types@V?$shared_ptr@VInterceptor@cpr@@@std@@@std@@@std@@@std@@QBEABV?$shared_ptr@VInterceptor@cpr@@@1@XZ
	??D?$_Deque_unchecked_iterator@V?$_Deque_val@U?$_Deque_simple_types@V?$function@$$A6AXXZ@std@@@std@@@std@@@std@@QBEAAV?$function@$$A6AXXZ@1@XZ
	??D?$_Deque_unchecked_iterator@V?$_Deque_val@U?$_Deque_simple_types@V?$shared_ptr@VInterceptor@cpr@@@std@@@std@@@std@@@std@@QBEAAV?$shared_ptr@VInterceptor@cpr@@@1@XZ
	??D?$_List_const_iterator@V?$_List_val@U?$_List_simple_types@UThreadData@ThreadPool@cpr@@@std@@@std@@@std@@QBEABUThreadData@ThreadPool@cpr@@XZ
	??D?$_List_iterator@V?$_List_val@U?$_List_simple_types@UThreadData@ThreadPool@cpr@@@std@@@std@@@std@@QBEAAUThreadData@ThreadPool@cpr@@XZ
	??D?$_List_unchecked_const_iterator@V?$_List_val@U?$_List_simple_types@UThreadData@ThreadPool@cpr@@@std@@@std@@U_Iterator_base0@2@@std@@QBEABUThreadData@ThreadPool@cpr@@XZ
	??D?$_List_unchecked_iterator@V?$_List_val@U?$_List_simple_types@UThreadData@ThreadPool@cpr@@@std@@@std@@@std@@QBEAAUThreadData@ThreadPool@cpr@@XZ
	??D?$_Tree_unchecked_const_iterator@V?$_Tree_val@U?$_Tree_simple_types@U?$pair@$$CBV?$basic_string@DU?$char_traits@D@std@@V?$allocator@D@2@@std@@V12@@std@@@std@@@std@@U_Iterator_base0@2@@std@@QBEABU?$pair@$$CBV?$basic_string@DU?$char_traits@D@std@@V?$allocator@D@2@@std@@V12@@1@XZ
	??D?$_Tree_unchecked_iterator@V?$_Tree_val@U?$_Tree_simple_types@U?$pair@$$CBV?$basic_string@DU?$char_traits@D@std@@V?$allocator@D@2@@std@@V12@@std@@@std@@@std@@@std@@QBEAAU?$pair@$$CBV?$basic_string@DU?$char_traits@D@std@@V?$allocator@D@2@@std@@V12@@1@XZ
	??D?$back_insert_iterator@V?$vector@UPair@cpr@@V?$allocator@UPair@cpr@@@std@@@std@@@std@@QAEAAV01@XZ
	??D?$back_insert_iterator@V?$vector@UParameter@cpr@@V?$allocator@UParameter@cpr@@@std@@@std@@@std@@QAEAAV01@XZ
	??D?$back_insert_iterator@V?$vector@V?$basic_string@DU?$char_traits@D@std@@V?$allocator@D@2@@std@@V?$allocator@V?$basic_string@DU?$char_traits@D@std@@V?$allocator@D@2@@std@@@2@@std@@@std@@QAEAAV01@XZ
	??E?$_Atomic_integral@I$03@std@@QAEIXZ
	??E?$_List_const_iterator@V?$_List_val@U?$_List_simple_types@UThreadData@ThreadPool@cpr@@@std@@@std@@@std@@QAEAAV01@XZ
	??E?$_List_iterator@V?$_List_val@U?$_List_simple_types@UThreadData@ThreadPool@cpr@@@std@@@std@@@std@@QAEAAV01@XZ
	??E?$_List_unchecked_const_iterator@V?$_List_val@U?$_List_simple_types@UThreadData@ThreadPool@cpr@@@std@@@std@@U_Iterator_base0@2@@std@@QAEAAV01@XZ
	??E?$_List_unchecked_iterator@V?$_List_val@U?$_List_simple_types@UThreadData@ThreadPool@cpr@@@std@@@std@@@std@@QAEAAV01@XZ
	??E?$_Tree_unchecked_const_iterator@V?$_Tree_val@U?$_Tree_simple_types@U?$pair@$$CBV?$basic_string@DU?$char_traits@D@std@@V?$allocator@D@2@@std@@V12@@std@@@std@@@std@@U_Iterator_base0@2@@std@@QAEAAV01@XZ
	??E?$_Tree_unchecked_const_iterator@V?$_Tree_val@U?$_Tree_simple_types@U?$pair@$$CBW4AcceptEncodingMethods@cpr@@V?$basic_string@DU?$char_traits@D@std@@V?$allocator@D@2@@std@@@std@@@std@@@std@@U_Iterator_base0@2@@std@@QAEAAV01@XZ
	??E?$_Tree_unchecked_iterator@V?$_Tree_val@U?$_Tree_simple_types@U?$pair@$$CBV?$basic_string@DU?$char_traits@D@std@@V?$allocator@D@2@@std@@V12@@std@@@std@@@std@@@std@@QAEAAV01@XZ
	??E?$back_insert_iterator@V?$vector@UPair@cpr@@V?$allocator@UPair@cpr@@@std@@@std@@@std@@QAEAAV01@XZ
	??E?$back_insert_iterator@V?$vector@UParameter@cpr@@V?$allocator@UParameter@cpr@@@std@@@std@@@std@@QAEAAV01@XZ
	??E?$back_insert_iterator@V?$vector@V?$basic_string@DU?$char_traits@D@std@@V?$allocator@D@2@@std@@V?$allocator@V?$basic_string@DU?$char_traits@D@std@@V?$allocator@D@2@@std@@@2@@std@@@std@@QAEAAV01@XZ
	??F?$_Atomic_integral@I$03@std@@QAEIXZ
	??F?$_Tree_unchecked_const_iterator@V?$_Tree_val@U?$_Tree_simple_types@U?$pair@$$CBV?$basic_string@DU?$char_traits@D@std@@V?$allocator@D@2@@std@@V12@@std@@@std@@@std@@U_Iterator_base0@2@@std@@QAEAAV01@XZ
	??F?$_Tree_unchecked_const_iterator@V?$_Tree_val@U?$_Tree_simple_types@U?$pair@$$CBW4AcceptEncodingMethods@cpr@@V?$basic_string@DU?$char_traits@D@std@@V?$allocator@D@2@@std@@@std@@@std@@@std@@U_Iterator_base0@2@@std@@QAEAAV01@XZ
	??H?$StringHolder@VUrl@cpr@@@cpr@@QBE?AVUrl@1@ABV?$basic_string@DU?$char_traits@D@std@@V?$allocator@D@2@@std@@@Z
	??H?$StringHolder@VUrl@cpr@@@cpr@@QBE?AVUrl@1@PBD@Z
	??Icpr@@YA?AW4PostRedirectFlags@0@W410@0@Z
	??R<lambda_15711c68e099a15a58f4d77303cb286d>@@QBE@QADQBDID@Z
	??R<lambda_45c76c3991057d85dfb5ae8b54d43d42>@@QBE@ABUPair@cpr@@@Z
	??R<lambda_4d79bb85f269e6e8002a4599002d832c>@@QBE@QADQBDII1I@Z
	??R<lambda_67d87d4aa1269033985980465fd1d824>@@QBE@QADQBDI@Z
	??R<lambda_6c2dd1c1a78057eb452ab161656ae1e8>@@QBE@ABUParameter@cpr@@@Z
	??R<lambda_9366063389c5f42a00a5088cf24e69de>@@QBE@QADIQBD@Z
	??R<lambda_ab246b20b9526e2ef7792587e4298a77>@@QBE@QADQBDI1I@Z
	??R<lambda_c1b8c41cb4019640539cfd828748c4d4>@@QBE@QADQBDIID@Z
	??R?$_Func_class@VResponse@cpr@@$$V@std@@QBE?AVResponse@cpr@@XZ
	??R?$_Func_class@X$$V@std@@QBEXXZ
	??R?$_Func_class@XW4InfoType@DebugCallback@cpr@@V?$basic_string@DU?$char_traits@D@std@@V?$allocator@D@2@@std@@H@std@@QBEXW4InfoType@DebugCallback@cpr@@V?$basic_string@DU?$char_traits@D@std@@V?$allocator@D@2@@1@H@Z
	??R?$_Func_class@_NPADAAIH@std@@QBE_NPADAAIH@Z
	??R?$_Func_class@_NV?$basic_string@DU?$char_traits@D@std@@V?$allocator@D@2@@std@@H@std@@QBE_NV?$basic_string@DU?$char_traits@D@std@@V?$allocator@D@2@@1@H@Z
	??R?$_Func_class@_N_J_J_J_JH@std@@QBE_N_J000H@Z
	??R?$default_delete@V_Facet_base@std@@@std@@QBEXPAV_Facet_base@1@@Z
	??R?$less@V?$basic_string@DU?$char_traits@D@std@@V?$allocator@D@2@@std@@@std@@QBE_NABV?$basic_string@DU?$char_traits@D@std@@V?$allocator@D@2@@1@0@Z
	??R?$less@W4AcceptEncodingMethods@cpr@@@std@@QBE_NABW4AcceptEncodingMethods@cpr@@0@Z
	??R?$packaged_task@$$A6A?AVResponse@cpr@@XZ@std@@QAEXXZ
	??RCaseInsensitiveCompare@cpr@@QBE_NABV?$basic_string@DU?$char_traits@D@std@@V?$allocator@D@2@@std@@0@Z
	??RDebugCallback@cpr@@QBEXW4InfoType@01@V?$basic_string@DU?$char_traits@D@std@@V?$allocator@D@2@@std@@@Z
	??RHeaderCallback@cpr@@QBE_NV?$basic_string@DU?$char_traits@D@std@@V?$allocator@D@2@@std@@@Z
	??RProgressCallback@cpr@@QBE_N_J000@Z
	??RReadCallback@cpr@@QBE_NPADAAI@Z
	??RWriteCallback@cpr@@QBE_NV?$basic_string@DU?$char_traits@D@std@@V?$allocator@D@2@@std@@@Z
	??Scpr@@YA?AW4PostRedirectFlags@0@W410@@Z
	??Tcpr@@YA?AW4PostRedirectFlags@0@W410@0@Z
	??Ucpr@@YA?AW4PostRedirectFlags@0@W410@0@Z
	??Y?$_Vector_const_iterator@V?$_Vector_val@U?$_Simple_types@V?$basic_string@DU?$char_traits@D@std@@V?$allocator@D@2@@std@@@std@@@std@@@std@@QAEAAV01@H@Z
	??Y?$basic_string@DU?$char_traits@D@std@@V?$allocator@D@2@@std@@QAEAAV01@ABV01@@Z
	??Y?$basic_string@DU?$char_traits@D@std@@V?$allocator@D@2@@std@@QAEAAV01@D@Z
	??Y?$basic_string@DU?$char_traits@D@std@@V?$allocator@D@2@@std@@QAEAAV01@QBD@Z
	??Y?$duration@_JU?$ratio@$00$0DLJKMKAA@@std@@@chrono@std@@QAEAAV012@ABV012@@Z
	??Y?$time_point@Usteady_clock@chrono@std@@V?$duration@_JU?$ratio@$00$0DLJKMKAA@@std@@@23@@chrono@std@@QAEAAV012@ABV?$duration@_JU?$ratio@$00$0DLJKMKAA@@std@@@12@@Z
	??Z?$duration@_JU?$ratio@$00$0DLJKMKAA@@std@@@chrono@std@@QAEAAV012@ABV012@@Z
	??_4cpr@@YAAAW4PostRedirectFlags@0@AAW410@W410@@Z
	??_5cpr@@YAAAW4PostRedirectFlags@0@AAW410@W410@@Z
	??_6cpr@@YAAAW4PostRedirectFlags@0@AAW410@W410@@Z
	??_D?$basic_istringstream@DU?$char_traits@D@std@@V?$allocator@D@2@@std@@QAEXXZ
	??_D?$basic_stringstream@DU?$char_traits@D@std@@V?$allocator@D@2@@std@@QAEXXZ
	??__Fcurl_easy_init_mutex_@?1??curl_easy_init_mutex_@CurlHolder@cpr@@CAAAVmutex@std@@XZ@YAXXZ
	?Add@?$CurlContainer@UPair@cpr@@@cpr@@QAEXABUPair@2@@Z
	?Add@?$CurlContainer@UPair@cpr@@@cpr@@QAEXABV?$initializer_list@UPair@cpr@@@std@@@Z
	?Add@?$CurlContainer@UParameter@cpr@@@cpr@@QAEXABUParameter@2@@Z
	?Add@?$CurlContainer@UParameter@cpr@@@cpr@@QAEXABV?$initializer_list@UParameter@cpr@@@std@@@Z
	?AddInterceptor@Session@cpr@@QAEXABV?$shared_ptr@VInterceptor@cpr@@@std@@@Z
	?AddThread@ThreadPool@cpr@@AAEXPAVthread@std@@@Z
	?Complete@Session@cpr@@QAE?AVResponse@2@W4CURLcode@@@Z
	?CreateThread@ThreadPool@cpr@@AAE_NXZ
	?DelThread@ThreadPool@cpr@@AAEXVid@thread@std@@@Z
	?Delete@Session@cpr@@QAE?AVResponse@2@XZ
	?DeleteAsync@Session@cpr@@QAE?AV?$future@VResponse@cpr@@@std@@XZ
	?Download@Session@cpr@@QAE?AVResponse@2@AAV?$basic_ofstream@DU?$char_traits@D@std@@@std@@@Z
	?Download@Session@cpr@@QAE?AVResponse@2@ABVWriteCallback@2@@Z
	?DownloadAsync@Session@cpr@@QAE?AV?$future@VResponse@cpr@@@std@@AAV?$basic_ofstream@DU?$char_traits@D@std@@@4@@Z
	?DownloadAsync@Session@cpr@@QAE?AV?$future@VResponse@cpr@@@std@@ABVWriteCallback@2@@Z
	?ExitInstance@GlobalThreadPool@cpr@@SAXXZ
	?Get@Session@cpr@@QAE?AVResponse@2@XZ
	?GetAsync@Session@cpr@@QAE?AV?$future@VResponse@cpr@@@std@@XZ
	?GetAuthMode@Authentication@cpr@@QBE?AW4AuthMode@2@XZ
	?GetAuthString@Authentication@cpr@@QBEPBDXZ
	?GetAuthString@EncodedAuthentication@cpr@@QBEPBDXZ
	?GetCertInfos@Response@cpr@@QAE?AV?$vector@VCertInfo@cpr@@V?$allocator@VCertInfo@cpr@@@std@@@std@@XZ
	?GetContent@?$CurlContainer@UPair@cpr@@@cpr@@QBE?BV?$basic_string@DU?$char_traits@D@std@@V?$allocator@D@2@@std@@ABUCurlHolder@2@@Z
	?GetContent@?$CurlContainer@UParameter@cpr@@@cpr@@QBE?BV?$basic_string@DU?$char_traits@D@std@@V?$allocator@D@2@@std@@ABUCurlHolder@2@@Z
	?GetCurlHolder@Session@cpr@@QAE?AV?$shared_ptr@UCurlHolder@cpr@@@std@@XZ
	?GetDomain@Cookie@cpr@@QBE?BV?$basic_string@DU?$char_traits@D@std@@V?$allocator@D@2@@std@@XZ
	?GetDownloadFileLength@Session@cpr@@QAE_JXZ
	?GetEncoded@Cookies@cpr@@QBE?BV?$basic_string@DU?$char_traits@D@std@@V?$allocator@D@2@@std@@ABUCurlHolder@2@@Z
	?GetExpires@Cookie@cpr@@QBE?BV?$time_point@Usystem_clock@chrono@std@@V?$duration@_JU?$ratio@$00$0JIJGIA@@std@@@23@@chrono@std@@XZ
	?GetExpiresString@Cookie@cpr@@QBE?BV?$basic_string@DU?$char_traits@D@std@@V?$allocator@D@2@@std@@XZ
	?GetFullRequestUrl@Session@cpr@@QAE?AV?$basic_string@DU?$char_traits@D@std@@V?$allocator@D@2@@std@@XZ
	?GetInstance@GlobalThreadPool@cpr@@SAPAV12@XZ
	?GetName@Cookie@cpr@@QBE?BV?$basic_string@DU?$char_traits@D@std@@V?$allocator@D@2@@std@@XZ
	?GetPath@Cookie@cpr@@QBE?BV?$basic_string@DU?$char_traits@D@std@@V?$allocator@D@2@@std@@XZ
	?GetSharedPtrFromThis@Session@cpr@@AAE?AV?$shared_ptr@VSession@cpr@@@std@@XZ
	?GetToken@Bearer@cpr@@UBEPBDXZ
	?GetUnixSocketString@UnixSocket@cpr@@QBEPBDXZ
	?GetValue@Cookie@cpr@@QBE?BV?$basic_string@DU?$char_traits@D@std@@V?$allocator@D@2@@std@@XZ
	?Head@Session@cpr@@QAE?AVResponse@2@XZ
	?HeadAsync@Session@cpr@@QAE?AV?$future@VResponse@cpr@@@std@@XZ
	?IsHttpsOnly@Cookie@cpr@@QBE_NXZ
	?IsIncludingSubdomains@Cookie@cpr@@QBE_NXZ
	?Milliseconds@Timeout@cpr@@QBEJXZ
	?Options@Session@cpr@@QAE?AVResponse@2@XZ
	?OptionsAsync@Session@cpr@@QAE?AV?$future@VResponse@cpr@@@std@@XZ
	?Patch@Session@cpr@@QAE?AVResponse@2@XZ
	?PatchAsync@Session@cpr@@QAE?AV?$future@VResponse@cpr@@@std@@XZ
	?Pause@ThreadPool@cpr@@QAEHXZ
	?Post@Session@cpr@@QAE?AVResponse@2@XZ
	?PostAsync@Session@cpr@@QAE?AV?$future@VResponse@cpr@@@std@@XZ
	?PrepareDelete@Session@cpr@@QAEXXZ
	?PrepareGet@Session@cpr@@QAEXXZ
	?PrepareHead@Session@cpr@@QAEXXZ
	?PrepareOptions@Session@cpr@@QAEXXZ
	?PreparePatch@Session@cpr@@QAEXXZ
	?PreparePost@Session@cpr@@QAEXXZ
	?PreparePut@Session@cpr@@QAEXXZ
	?Put@Session@cpr@@QAE?AVResponse@2@XZ
	?PutAsync@Session@cpr@@QAE?AV?$future@VResponse@cpr@@@std@@XZ
	?ResponseStringReserve@Session@cpr@@QAEXI@Z
	?Resume@ThreadPool@cpr@@QAEHXZ
	?SetAcceptEncoding@Session@cpr@@QAEX$$QAVAcceptEncoding@2@@Z
	?SetAcceptEncoding@Session@cpr@@QAEXABVAcceptEncoding@2@@Z
	?SetAuth@Session@cpr@@QAEXABVAuthentication@2@@Z
	?SetBearer@Session@cpr@@QAEXABVBearer@2@@Z
	?SetBody@Session@cpr@@QAEX$$QAVBody@2@@Z
	?SetBody@Session@cpr@@QAEXABVBody@2@@Z
	?SetConnectTimeout@Session@cpr@@QAEXABVConnectTimeout@2@@Z
	?SetCookies@Session@cpr@@QAEXABVCookies@2@@Z
	?SetDebugCallback@Session@cpr@@QAEXABVDebugCallback@2@@Z
	?SetHeader@Session@cpr@@QAEXABV?$map@V?$basic_string@DU?$char_traits@D@std@@V?$allocator@D@2@@std@@V12@UCaseInsensitiveCompare@cpr@@V?$allocator@U?$pair@$$CBV?$basic_string@DU?$char_traits@D@std@@V?$allocator@D@2@@std@@V12@@std@@@2@@std@@@Z
	?SetHeaderCallback@Session@cpr@@QAEXABVHeaderCallback@2@@Z
	?SetHeaderInternal@Session@cpr@@AAEXXZ
	?SetHttpVersion@Session@cpr@@QAEXABVHttpVersion@2@@Z
	?SetInterface@Session@cpr@@QAEXABVInterface@2@@Z
	?SetLimitRate@Session@cpr@@QAEXABVLimitRate@2@@Z
	?SetLocalPort@Session@cpr@@QAEXABVLocalPort@2@@Z
	?SetLocalPortRange@Session@cpr@@QAEXABVLocalPortRange@2@@Z
	?SetLowSpeed@Session@cpr@@QAEXABVLowSpeed@2@@Z
	?SetMultiRange@Session@cpr@@QAEXABVMultiRange@2@@Z
	?SetMultipart@Session@cpr@@QAEX$$QAVMultipart@2@@Z
	?SetMultipart@Session@cpr@@QAEXABVMultipart@2@@Z
	?SetOption@Session@cpr@@QAEX$$QAVAcceptEncoding@2@@Z
	?SetOption@Session@cpr@@QAEX$$QAVBody@2@@Z
	?SetOption@Session@cpr@@QAEX$$QAVMultipart@2@@Z
	?SetOption@Session@cpr@@QAEX$$QAVParameters@2@@Z
	?SetOption@Session@cpr@@QAEX$$QAVPayload@2@@Z
	?SetOption@Session@cpr@@QAEX$$QAVProxies@2@@Z
	?SetOption@Session@cpr@@QAEX$$QAVProxyAuthentication@2@@Z
	?SetOption@Session@cpr@@QAEXABUSslOptions@2@@Z
	?SetOption@Session@cpr@@QAEXABV?$map@V?$basic_string@DU?$char_traits@D@std@@V?$allocator@D@2@@std@@V12@UCaseInsensitiveCompare@cpr@@V?$allocator@U?$pair@$$CBV?$basic_string@DU?$char_traits@D@std@@V?$allocator@D@2@@std@@V12@@std@@@2@@std@@@Z
	?SetOption@Session@cpr@@QAEXABVAcceptEncoding@2@@Z
	?SetOption@Session@cpr@@QAEXABVAuthentication@2@@Z
	?SetOption@Session@cpr@@QAEXABVBearer@2@@Z
	?SetOption@Session@cpr@@QAEXABVBody@2@@Z
	?SetOption@Session@cpr@@QAEXABVConnectTimeout@2@@Z
	?SetOption@Session@cpr@@QAEXABVCookies@2@@Z
	?SetOption@Session@cpr@@QAEXABVDebugCallback@2@@Z
	?SetOption@Session@cpr@@QAEXABVHeaderCallback@2@@Z
	?SetOption@Session@cpr@@QAEXABVHttpVersion@2@@Z
	?SetOption@Session@cpr@@QAEXABVInterface@2@@Z
	?SetOption@Session@cpr@@QAEXABVLimitRate@2@@Z
	?SetOption@Session@cpr@@QAEXABVLocalPort@2@@Z
	?SetOption@Session@cpr@@QAEXABVLocalPortRange@2@@Z
	?SetOption@Session@cpr@@QAEXABVLowSpeed@2@@Z
	?SetOption@Session@cpr@@QAEXABVMultiRange@2@@Z
	?SetOption@Session@cpr@@QAEXABVMultipart@2@@Z
	?SetOption@Session@cpr@@QAEXABVParameters@2@@Z
	?SetOption@Session@cpr@@QAEXABVPayload@2@@Z
	?SetOption@Session@cpr@@QAEXABVProgressCallback@2@@Z
	?SetOption@Session@cpr@@QAEXABVProxies@2@@Z
	?SetOption@Session@cpr@@QAEXABVProxyAuthentication@2@@Z
	?SetOption@Session@cpr@@QAEXABVRange@2@@Z
	?SetOption@Session@cpr@@QAEXABVReadCallback@2@@Z
	?SetOption@Session@cpr@@QAEXABVRedirect@2@@Z
	?SetOption@Session@cpr@@QAEXABVReserveSize@2@@Z
	?SetOption@Session@cpr@@QAEXABVTimeout@2@@Z
	?SetOption@Session@cpr@@QAEXABVUnixSocket@2@@Z
	?SetOption@Session@cpr@@QAEXABVUrl@2@@Z
	?SetOption@Session@cpr@@QAEXABVUserAgent@2@@Z
	?SetOption@Session@cpr@@QAEXABVVerbose@2@@Z
	?SetOption@Session@cpr@@QAEXABVVerifySsl@2@@Z
	?SetOption@Session@cpr@@QAEXABVWriteCallback@2@@Z
	?SetParameters@Session@cpr@@QAEX$$QAVParameters@2@@Z
	?SetParameters@Session@cpr@@QAEXABVParameters@2@@Z
	?SetPayload@Session@cpr@@QAEX$$QAVPayload@2@@Z
	?SetPayload@Session@cpr@@QAEXABVPayload@2@@Z
	?SetProgressCallback@Session@cpr@@QAEXABVProgressCallback@2@@Z
	?SetProxies@Session@cpr@@QAEX$$QAVProxies@2@@Z
	?SetProxies@Session@cpr@@QAEXABVProxies@2@@Z
	?SetProxyAuth@Session@cpr@@QAEX$$QAVProxyAuthentication@2@@Z
	?SetProxyAuth@Session@cpr@@QAEXABVProxyAuthentication@2@@Z
	?SetRange@Session@cpr@@QAEXABVRange@2@@Z
	?SetReadCallback@Session@cpr@@QAEXABVReadCallback@2@@Z
	?SetRedirect@Session@cpr@@QAEXABVRedirect@2@@Z
	?SetReserveSize@Session@cpr@@QAEXABVReserveSize@2@@Z
	?SetSslOptions@Session@cpr@@QAEXABUSslOptions@2@@Z
	?SetTimeout@Session@cpr@@QAEXABVTimeout@2@@Z
	?SetUnixSocket@Session@cpr@@QAEXABVUnixSocket@2@@Z
	?SetUrl@Session@cpr@@QAEXABVUrl@2@@Z
	?SetUserAgent@Session@cpr@@QAEXABVUserAgent@2@@Z
	?SetVerbose@Session@cpr@@QAEXABVVerbose@2@@Z
	?SetVerifySsl@Session@cpr@@QAEXABVVerifySsl@2@@Z
	?SetWriteCallback@Session@cpr@@QAEXABVWriteCallback@2@@Z
	?Start@ThreadPool@cpr@@QAEHI@Z
	?Stop@ThreadPool@cpr@@QAEHXZ
	?UpdateHeader@Session@cpr@@QAEXABV?$map@V?$basic_string@DU?$char_traits@D@std@@V?$allocator@D@2@@std@@V12@UCaseInsensitiveCompare@cpr@@V?$allocator@U?$pair@$$CBV?$basic_string@DU?$char_traits@D@std@@V?$allocator@D@2@@std@@V12@@std@@@2@@std@@@Z
	?Wait@ThreadPool@cpr@@QAEHXZ
	?_Abandon@?$_Associated_state@VResponse@cpr@@@std@@QAEXXZ
	?_Abandon@?$_State_manager@VResponse@cpr@@@std@@QAEXXZ
	?_Adjust_manually_vector_aligned@std@@YAXAAPAXAAI@Z
	?_Adopt@_Iterator_base0@std@@QAEXPBX@Z
	?_Adopt@_Iterator_base12@std@@QAEXPBU_Container_base12@2@@Z
	?_Adopt_locked@_Iterator_base12@std@@AAEXPBU_Container_base12@2@@Z
	?_Adopt_unlocked@_Iterator_base12@std@@AAEXPBU_Container_base12@2@@Z
	?_Alloc_sentinel_and_proxy@?$_Tree@V?$_Tmap_traits@V?$basic_string@DU?$char_traits@D@std@@V?$allocator@D@2@@std@@V12@U?$less@V?$basic_string@DU?$char_traits@D@std@@V?$allocator@D@2@@std@@@2@V?$allocator@U?$pair@$$CBV?$basic_string@DU?$char_traits@D@std@@V?$allocator@D@2@@std@@V12@@std@@@2@$0A@@std@@@std@@IAEXXZ
	?_Alloc_sentinel_and_proxy@?$_Tree@V?$_Tmap_traits@V?$basic_string@DU?$char_traits@D@std@@V?$allocator@D@2@@std@@V12@UCaseInsensitiveCompare@cpr@@V?$allocator@U?$pair@$$CBV?$basic_string@DU?$char_traits@D@std@@V?$allocator@D@2@@std@@V12@@std@@@2@$0A@@std@@@std@@IAEXXZ
	?_Alloc_sentinel_and_proxy@?$_Tree@V?$_Tmap_traits@V?$basic_string@DU?$char_traits@D@std@@V?$allocator@D@2@@std@@VEncodedAuthentication@cpr@@U?$less@V?$basic_string@DU?$char_traits@D@std@@V?$allocator@D@2@@std@@@2@V?$allocator@U?$pair@$$CBV?$basic_string@DU?$char_traits@D@std@@V?$allocator@D@2@@std@@VEncodedAuthentication@cpr@@@std@@@2@$0A@@std@@@std@@IAEXXZ
	?_Alloc_sentinel_and_proxy@?$_Tree@V?$_Tmap_traits@W4AcceptEncodingMethods@cpr@@V?$basic_string@DU?$char_traits@D@std@@V?$allocator@D@2@@std@@U?$less@W4AcceptEncodingMethods@cpr@@@4@V?$allocator@U?$pair@$$CBW4AcceptEncodingMethods@cpr@@V?$basic_string@DU?$char_traits@D@std@@V?$allocator@D@2@@std@@@std@@@4@$0A@@std@@@std@@IAEXXZ
	?_Alloc_sentinel_and_proxy@?$list@UThreadData@ThreadPool@cpr@@V?$allocator@UThreadData@ThreadPool@cpr@@@std@@@std@@AAEXXZ
	?_Allocate@?$_Alloc_construct_ptr@V?$allocator@U?$_List_node@UThreadData@ThreadPool@cpr@@PAX@std@@@std@@@std@@QAEXXZ
	?_Allocate@?$_Alloc_construct_ptr@V?$allocator@U?$_Tree_node@U?$pair@$$CBV?$basic_string@DU?$char_traits@D@std@@V?$allocator@D@2@@std@@V12@@std@@PAX@std@@@std@@@std@@QAEXXZ
	?_Allocate@?$_Alloc_construct_ptr@V?$allocator@U?$_Tree_node@U?$pair@$$CBV?$basic_string@DU?$char_traits@D@std@@V?$allocator@D@2@@std@@VEncodedAuthentication@cpr@@@std@@PAX@std@@@std@@@std@@QAEXXZ
	?_Allocate@?$_Alloc_construct_ptr@V?$allocator@U?$_Tree_node@U?$pair@$$CBW4AcceptEncodingMethods@cpr@@V?$basic_string@DU?$char_traits@D@std@@V?$allocator@D@2@@std@@@std@@PAX@std@@@std@@@std@@QAEXXZ
	?_Allocate@_Default_allocate_traits@std@@SAPAXI@Z
	?_Already_has_stored_result@?$_Associated_state@VResponse@cpr@@@std@@QBE_NXZ
	?_Already_retrieved@?$_Associated_state@VResponse@cpr@@@std@@QBE_NXZ
	?_Assign_locked@_Iterator_base12@std@@AAEXABU12@@Z
	?_Assign_unlocked@_Iterator_base12@std@@AAEXABU12@@Z
	?_Become_small@?$basic_string@DU?$char_traits@D@std@@V?$allocator@D@2@@std@@AAEXXZ
	?_Buy_nonzero@?$vector@UPair@cpr@@V?$allocator@UPair@cpr@@@std@@@std@@AAEXI@Z
	?_Buy_nonzero@?$vector@UParameter@cpr@@V?$allocator@UParameter@cpr@@@std@@@std@@AAEXI@Z
	?_Buy_nonzero@?$vector@UPart@cpr@@V?$allocator@UPart@cpr@@@std@@@std@@AAEXI@Z
	?_Buy_nonzero@?$vector@V?$basic_string@DU?$char_traits@D@std@@V?$allocator@D@2@@std@@V?$allocator@V?$basic_string@DU?$char_traits@D@std@@V?$allocator@D@2@@std@@@2@@std@@AAEXI@Z
	?_Buy_raw@?$vector@UPair@cpr@@V?$allocator@UPair@cpr@@@std@@@std@@AAEXI@Z
	?_Buy_raw@?$vector@UParameter@cpr@@V?$allocator@UParameter@cpr@@@std@@@std@@AAEXI@Z
	?_Buy_raw@?$vector@UPart@cpr@@V?$allocator@UPart@cpr@@@std@@@std@@AAEXI@Z
	?_Buy_raw@?$vector@V?$basic_string@DU?$char_traits@D@std@@V?$allocator@D@2@@std@@V?$allocator@V?$basic_string@DU?$char_traits@D@std@@V?$allocator@D@2@@std@@@2@@std@@AAEXI@Z
	?_Calculate_growth@?$basic_string@DU?$char_traits@D@std@@V?$allocator@D@2@@std@@ABEII@Z
	?_Calculate_growth@?$basic_string@DU?$char_traits@D@std@@V?$allocator@D@2@@std@@CAIIII@Z
	?_Calculate_growth@?$vector@UPair@cpr@@V?$allocator@UPair@cpr@@@std@@@std@@ABEII@Z
	?_Calculate_growth@?$vector@UParameter@cpr@@V?$allocator@UParameter@cpr@@@std@@@std@@ABEII@Z
	?_Calculate_growth@?$vector@Ucurl_forms@@V?$allocator@Ucurl_forms@@@std@@@std@@ABEII@Z
	?_Calculate_growth@?$vector@V?$basic_string@DU?$char_traits@D@std@@V?$allocator@D@2@@std@@V?$allocator@V?$basic_string@DU?$char_traits@D@std@@V?$allocator@D@2@@std@@@2@@std@@ABEII@Z
	?_Calculate_growth@?$vector@VCertInfo@cpr@@V?$allocator@VCertInfo@cpr@@@std@@@std@@ABEII@Z
	?_Calculate_growth@?$vector@VCookie@cpr@@V?$allocator@VCookie@cpr@@@std@@@std@@ABEII@Z
	?_Call_immediate@?$_Packaged_state@$$A6A?AVResponse@cpr@@XZ@std@@QAEXXZ
	?_Change_array@?$vector@UPair@cpr@@V?$allocator@UPair@cpr@@@std@@@std@@AAEXQAUPair@cpr@@II@Z
	?_Change_array@?$vector@UParameter@cpr@@V?$allocator@UParameter@cpr@@@std@@@std@@AAEXQAUParameter@cpr@@II@Z
	?_Change_array@?$vector@Ucurl_forms@@V?$allocator@Ucurl_forms@@@std@@@std@@AAEXQAUcurl_forms@@II@Z
	?_Change_array@?$vector@V?$basic_string@DU?$char_traits@D@std@@V?$allocator@D@2@@std@@V?$allocator@V?$basic_string@DU?$char_traits@D@std@@V?$allocator@D@2@@std@@@2@@std@@AAEXQAV?$basic_string@DU?$char_traits@D@std@@V?$allocator@D@2@@2@II@Z
	?_Change_array@?$vector@VCertInfo@cpr@@V?$allocator@VCertInfo@cpr@@@std@@@std@@AAEXQAVCertInfo@cpr@@II@Z
	?_Change_array@?$vector@VCookie@cpr@@V?$allocator@VCookie@cpr@@@std@@@std@@AAEXQAVCookie@cpr@@II@Z
	?_Check_C_return@std@@YAHH@Z
	?_Check_grow_by_1@?$_Tree@V?$_Tmap_traits@V?$basic_string@DU?$char_traits@D@std@@V?$allocator@D@2@@std@@V12@U?$less@V?$basic_string@DU?$char_traits@D@std@@V?$allocator@D@2@@std@@@2@V?$allocator@U?$pair@$$CBV?$basic_string@DU?$char_traits@D@std@@V?$allocator@D@2@@std@@V12@@std@@@2@$0A@@std@@@std@@IAEXXZ
	?_Check_grow_by_1@?$_Tree@V?$_Tmap_traits@V?$basic_string@DU?$char_traits@D@std@@V?$allocator@D@2@@std@@V12@UCaseInsensitiveCompare@cpr@@V?$allocator@U?$pair@$$CBV?$basic_string@DU?$char_traits@D@std@@V?$allocator@D@2@@std@@V12@@std@@@2@$0A@@std@@@std@@IAEXXZ
	?_Check_grow_by_1@?$_Tree@V?$_Tmap_traits@V?$basic_string@DU?$char_traits@D@std@@V?$allocator@D@2@@std@@VEncodedAuthentication@cpr@@U?$less@V?$basic_string@DU?$char_traits@D@std@@V?$allocator@D@2@@std@@@2@V?$allocator@U?$pair@$$CBV?$basic_string@DU?$char_traits@D@std@@V?$allocator@D@2@@std@@VEncodedAuthentication@cpr@@@std@@@2@$0A@@std@@@std@@IAEXXZ
	?_Check_grow_by_1@?$_Tree@V?$_Tmap_traits@W4AcceptEncodingMethods@cpr@@V?$basic_string@DU?$char_traits@D@std@@V?$allocator@D@2@@std@@U?$less@W4AcceptEncodingMethods@cpr@@@4@V?$allocator@U?$pair@$$CBW4AcceptEncodingMethods@cpr@@V?$basic_string@DU?$char_traits@D@std@@V?$allocator@D@2@@std@@@std@@@4@$0A@@std@@@std@@IAEXXZ
	?_Check_offset@?$_String_val@U?$_Simple_types@D@std@@@std@@QBEXI@Z
	?_Clamp_suffix_size@?$_String_val@U?$_Simple_types@D@std@@@std@@QBEIII@Z
	?_Clear_and_reserve_geometric@?$vector@UParameter@cpr@@V?$allocator@UParameter@cpr@@@std@@@std@@AAEXI@Z
	?_Clear_and_reserve_geometric@?$vector@V?$basic_string@DU?$char_traits@D@std@@V?$allocator@D@2@@std@@V?$allocator@V?$basic_string@DU?$char_traits@D@std@@V?$allocator@D@2@@std@@@2@@std@@AAEXI@Z
	?_Copy_exception@exception_ptr@std@@SA?AV12@PAXPBX@Z
	?_Copy_from@?$_State_manager@VResponse@cpr@@@std@@QAEXABV12@@Z
	?_Current_exception@exception_ptr@std@@SA?AV12@XZ
	?_Decref@?$_Ptr_base@UCurlHolder@cpr@@@std@@IAEXXZ
	?_Decref@?$_Ptr_base@V?$packaged_task@$$A6A?AVResponse@cpr@@XZ@std@@@std@@IAEXXZ
	?_Decref@?$_Ptr_base@VInterceptor@cpr@@@std@@IAEXXZ
	?_Decref@?$_Ptr_base@VSession@cpr@@@std@@IAEXXZ
	?_Decref@?$_Ptr_base@Vthread@std@@@std@@IAEXXZ
	?_Decref@_Ref_count_base@std@@QAEXXZ
	?_Decwref@?$_Ptr_base@VSession@cpr@@@std@@IAEXXZ
	?_Decwref@_Ref_count_base@std@@QAEXXZ
	?_Delete_this@?$_Associated_state@VResponse@cpr@@@std@@AAEXXZ
	?_Delete_this@?$_Ref_count@UCurlHolder@cpr@@@std@@EAEXXZ
	?_Delete_this@?$_Ref_count@Vthread@std@@@std@@EAEXXZ
	?_Delete_this@?$_Ref_count_obj2@V?$packaged_task@$$A6A?AVResponse@cpr@@XZ@std@@@std@@EAEXXZ
	?_Destroy@?$_Ref_count@UCurlHolder@cpr@@@std@@EAEXXZ
	?_Destroy@?$_Ref_count@Vthread@std@@@std@@EAEXXZ
	?_Destroy@?$_Ref_count_obj2@V?$packaged_task@$$A6A?AVResponse@cpr@@XZ@std@@@std@@EAEXXZ
	?_Do_notify@?$_Associated_state@VResponse@cpr@@@std@@EAEXPAV?$unique_lock@Vmutex@std@@@2@_N@Z
	?_Empty@?$_Func_class@VResponse@cpr@@$$V@std@@IBE_NXZ
	?_Empty@?$_Func_class@X$$V@std@@IBE_NXZ
	?_Empty@?$_Func_class@XW4InfoType@DebugCallback@cpr@@V?$basic_string@DU?$char_traits@D@std@@V?$allocator@D@2@@std@@H@std@@IBE_NXZ
	?_Empty@?$_Func_class@_NPADAAIH@std@@IBE_NXZ
	?_Empty@?$_Func_class@_NV?$basic_string@DU?$char_traits@D@std@@V?$allocator@D@2@@std@@H@std@@IBE_NXZ
	?_Empty@?$_Func_class@_N_J_J_J_JH@std@@IBE_NXZ
	?_Eos@?$basic_string@DU?$char_traits@D@std@@V?$allocator@D@2@@std@@AAEXI@Z
	?_Equal@?$basic_string@DU?$char_traits@D@std@@V?$allocator@D@2@@std@@QBE_NQBD@Z
	?_Erase_noexcept@?$basic_string@DU?$char_traits@D@std@@V?$allocator@D@2@@std@@AAEAAV12@II@Z
	?_Extract@?$_In_place_key_extract_map@V?$basic_string@DU?$char_traits@D@std@@V?$allocator@D@2@@std@@U?$pair@$$CBV?$basic_string@DU?$char_traits@D@std@@V?$allocator@D@2@@std@@V12@@2@@std@@SAABV?$basic_string@DU?$char_traits@D@std@@V?$allocator@D@2@@2@ABU?$pair@$$CBV?$basic_string@DU?$char_traits@D@std@@V?$allocator@D@2@@std@@V12@@2@@Z
	?_Extract@?$_In_place_key_extract_map@W4AcceptEncodingMethods@cpr@@U?$pair@$$CBW4AcceptEncodingMethods@cpr@@V?$basic_string@DU?$char_traits@D@std@@V?$allocator@D@2@@std@@@std@@@std@@SAABW4AcceptEncodingMethods@cpr@@ABU?$pair@$$CBW4AcceptEncodingMethods@cpr@@V?$basic_string@DU?$char_traits@D@std@@V?$allocator@D@2@@std@@@2@@Z
	?_Future_error_map@std@@YAPBDH@Z
	?_Get_buffer_view@?$basic_stringbuf@DU?$char_traits@D@std@@V?$allocator@D@2@@std@@QBE?AU_Buffer_view@12@XZ
	?_Get_data@?$deque@V?$function@$$A6AXXZ@std@@V?$allocator@V?$function@$$A6AXXZ@std@@@2@@std@@AAEAAV?$_Deque_val@U?$_Deque_simple_types@V?$function@$$A6AXXZ@std@@@std@@@2@XZ
	?_Get_data@?$deque@V?$function@$$A6AXXZ@std@@V?$allocator@V?$function@$$A6AXXZ@std@@@2@@std@@ABEABV?$_Deque_val@U?$_Deque_simple_types@V?$function@$$A6AXXZ@std@@@std@@@2@XZ
	?_Get_data@?$deque@V?$shared_ptr@VInterceptor@cpr@@@std@@V?$allocator@V?$shared_ptr@VInterceptor@cpr@@@std@@@2@@std@@AAEAAV?$_Deque_val@U?$_Deque_simple_types@V?$shared_ptr@VInterceptor@cpr@@@std@@@std@@@2@XZ
	?_Get_data@?$deque@V?$shared_ptr@VInterceptor@cpr@@@std@@V?$allocator@V?$shared_ptr@VInterceptor@cpr@@@std@@@2@@std@@ABEABV?$_Deque_val@U?$_Deque_simple_types@V?$shared_ptr@VInterceptor@cpr@@@std@@@std@@@2@XZ
	?_Get_deleter@_Ref_count_base@std@@UBEPAXABVtype_info@@@Z
	?_Get_first@?$_Compressed_pair@U?$default_delete@V_Facet_base@std@@@std@@PAV_Facet_base@2@$00@std@@QAEAAU?$default_delete@V_Facet_base@std@@@2@XZ
	?_Get_first@?$_Compressed_pair@U?$less@V?$basic_string@DU?$char_traits@D@std@@V?$allocator@D@2@@std@@@std@@V?$_Compressed_pair@V?$allocator@U?$_Tree_node@U?$pair@$$CBV?$basic_string@DU?$char_traits@D@std@@V?$allocator@D@2@@std@@V12@@std@@PAX@std@@@std@@V?$_Tree_val@U?$_Tree_simple_types@U?$pair@$$CBV?$basic_string@DU?$char_traits@D@std@@V?$allocator@D@2@@std@@V12@@std@@@std@@@2@$00@2@$00@std@@QAEAAU?$less@V?$basic_string@DU?$char_traits@D@std@@V?$allocator@D@2@@std@@@2@XZ
	?_Get_first@?$_Compressed_pair@U?$less@V?$basic_string@DU?$char_traits@D@std@@V?$allocator@D@2@@std@@@std@@V?$_Compressed_pair@V?$allocator@U?$_Tree_node@U?$pair@$$CBV?$basic_string@DU?$char_traits@D@std@@V?$allocator@D@2@@std@@V12@@std@@PAX@std@@@std@@V?$_Tree_val@U?$_Tree_simple_types@U?$pair@$$CBV?$basic_string@DU?$char_traits@D@std@@V?$allocator@D@2@@std@@V12@@std@@@std@@@2@$00@2@$00@std@@QBEABU?$less@V?$basic_string@DU?$char_traits@D@std@@V?$allocator@D@2@@std@@@2@XZ
	?_Get_first@?$_Compressed_pair@U?$less@V?$basic_string@DU?$char_traits@D@std@@V?$allocator@D@2@@std@@@std@@V?$_Compressed_pair@V?$allocator@U?$_Tree_node@U?$pair@$$CBV?$basic_string@DU?$char_traits@D@std@@V?$allocator@D@2@@std@@VEncodedAuthentication@cpr@@@std@@PAX@std@@@std@@V?$_Tree_val@U?$_Tree_simple_types@U?$pair@$$CBV?$basic_string@DU?$char_traits@D@std@@V?$allocator@D@2@@std@@VEncodedAuthentication@cpr@@@std@@@std@@@2@$00@2@$00@std@@QAEAAU?$less@V?$basic_string@DU?$char_traits@D@std@@V?$allocator@D@2@@std@@@2@XZ
	?_Get_first@?$_Compressed_pair@U?$less@V?$basic_string@DU?$char_traits@D@std@@V?$allocator@D@2@@std@@@std@@V?$_Compressed_pair@V?$allocator@U?$_Tree_node@U?$pair@$$CBV?$basic_string@DU?$char_traits@D@std@@V?$allocator@D@2@@std@@VEncodedAuthentication@cpr@@@std@@PAX@std@@@std@@V?$_Tree_val@U?$_Tree_simple_types@U?$pair@$$CBV?$basic_string@DU?$char_traits@D@std@@V?$allocator@D@2@@std@@VEncodedAuthentication@cpr@@@std@@@std@@@2@$00@2@$00@std@@QBEABU?$less@V?$basic_string@DU?$char_traits@D@std@@V?$allocator@D@2@@std@@@2@XZ
	?_Get_first@?$_Compressed_pair@U?$less@W4AcceptEncodingMethods@cpr@@@std@@V?$_Compressed_pair@V?$allocator@U?$_Tree_node@U?$pair@$$CBW4AcceptEncodingMethods@cpr@@V?$basic_string@DU?$char_traits@D@std@@V?$allocator@D@2@@std@@@std@@PAX@std@@@std@@V?$_Tree_val@U?$_Tree_simple_types@U?$pair@$$CBW4AcceptEncodingMethods@cpr@@V?$basic_string@DU?$char_traits@D@std@@V?$allocator@D@2@@std@@@std@@@std@@@2@$00@2@$00@std@@QBEABU?$less@W4AcceptEncodingMethods@cpr@@@2@XZ
	?_Get_first@?$_Compressed_pair@UCaseInsensitiveCompare@cpr@@V?$_Compressed_pair@V?$allocator@U?$_Tree_node@U?$pair@$$CBV?$basic_string@DU?$char_traits@D@std@@V?$allocator@D@2@@std@@V12@@std@@PAX@std@@@std@@V?$_Tree_val@U?$_Tree_simple_types@U?$pair@$$CBV?$basic_string@DU?$char_traits@D@std@@V?$allocator@D@2@@std@@V12@@std@@@std@@@2@$00@std@@$00@std@@QAEAAUCaseInsensitiveCompare@cpr@@XZ
	?_Get_first@?$_Compressed_pair@UCaseInsensitiveCompare@cpr@@V?$_Compressed_pair@V?$allocator@U?$_Tree_node@U?$pair@$$CBV?$basic_string@DU?$char_traits@D@std@@V?$allocator@D@2@@std@@V12@@std@@PAX@std@@@std@@V?$_Tree_val@U?$_Tree_simple_types@U?$pair@$$CBV?$basic_string@DU?$char_traits@D@std@@V?$allocator@D@2@@std@@V12@@std@@@std@@@2@$00@std@@$00@std@@QBEABUCaseInsensitiveCompare@cpr@@XZ
	?_Get_first@?$_Compressed_pair@V?$allocator@D@std@@V?$_String_val@U?$_Simple_types@D@std@@@2@$00@std@@QAEAAV?$allocator@D@2@XZ
	?_Get_first@?$_Compressed_pair@V?$allocator@D@std@@V?$_String_val@U?$_Simple_types@D@std@@@2@$00@std@@QBEABV?$allocator@D@2@XZ
	?_Get_first@?$_Compressed_pair@V?$allocator@U?$_List_node@UThreadData@ThreadPool@cpr@@PAX@std@@@std@@V?$_List_val@U?$_List_simple_types@UThreadData@ThreadPool@cpr@@@std@@@2@$00@std@@QAEAAV?$allocator@U?$_List_node@UThreadData@ThreadPool@cpr@@PAX@std@@@2@XZ
	?_Get_first@?$_Compressed_pair@V?$allocator@U?$_List_node@UThreadData@ThreadPool@cpr@@PAX@std@@@std@@V?$_List_val@U?$_List_simple_types@UThreadData@ThreadPool@cpr@@@std@@@2@$00@std@@QBEABV?$allocator@U?$_List_node@UThreadData@ThreadPool@cpr@@PAX@std@@@2@XZ
	?_Get_first@?$_Compressed_pair@V?$allocator@U?$_Tree_node@U?$pair@$$CBV?$basic_string@DU?$char_traits@D@std@@V?$allocator@D@2@@std@@V12@@std@@PAX@std@@@std@@V?$_Tree_val@U?$_Tree_simple_types@U?$pair@$$CBV?$basic_string@DU?$char_traits@D@std@@V?$allocator@D@2@@std@@V12@@std@@@std@@@2@$00@std@@QAEAAV?$allocator@U?$_Tree_node@U?$pair@$$CBV?$basic_string@DU?$char_traits@D@std@@V?$allocator@D@2@@std@@V12@@std@@PAX@std@@@2@XZ
	?_Get_first@?$_Compressed_pair@V?$allocator@U?$_Tree_node@U?$pair@$$CBV?$basic_string@DU?$char_traits@D@std@@V?$allocator@D@2@@std@@V12@@std@@PAX@std@@@std@@V?$_Tree_val@U?$_Tree_simple_types@U?$pair@$$CBV?$basic_string@DU?$char_traits@D@std@@V?$allocator@D@2@@std@@V12@@std@@@std@@@2@$00@std@@QBEABV?$allocator@U?$_Tree_node@U?$pair@$$CBV?$basic_string@DU?$char_traits@D@std@@V?$allocator@D@2@@std@@V12@@std@@PAX@std@@@2@XZ
	?_Get_first@?$_Compressed_pair@V?$allocator@U?$_Tree_node@U?$pair@$$CBV?$basic_string@DU?$char_traits@D@std@@V?$allocator@D@2@@std@@VEncodedAuthentication@cpr@@@std@@PAX@std@@@std@@V?$_Tree_val@U?$_Tree_simple_types@U?$pair@$$CBV?$basic_string@DU?$char_traits@D@std@@V?$allocator@D@2@@std@@VEncodedAuthentication@cpr@@@std@@@std@@@2@$00@std@@QAEAAV?$allocator@U?$_Tree_node@U?$pair@$$CBV?$basic_string@DU?$char_traits@D@std@@V?$allocator@D@2@@std@@VEncodedAuthentication@cpr@@@std@@PAX@std@@@2@XZ
	?_Get_first@?$_Compressed_pair@V?$allocator@U?$_Tree_node@U?$pair@$$CBV?$basic_string@DU?$char_traits@D@std@@V?$allocator@D@2@@std@@VEncodedAuthentication@cpr@@@std@@PAX@std@@@std@@V?$_Tree_val@U?$_Tree_simple_types@U?$pair@$$CBV?$basic_string@DU?$char_traits@D@std@@V?$allocator@D@2@@std@@VEncodedAuthentication@cpr@@@std@@@std@@@2@$00@std@@QBEABV?$allocator@U?$_Tree_node@U?$pair@$$CBV?$basic_string@DU?$char_traits@D@std@@V?$allocator@D@2@@std@@VEncodedAuthentication@cpr@@@std@@PAX@std@@@2@XZ
	?_Get_first@?$_Compressed_pair@V?$allocator@U?$_Tree_node@U?$pair@$$CBW4AcceptEncodingMethods@cpr@@V?$basic_string@DU?$char_traits@D@std@@V?$allocator@D@2@@std@@@std@@PAX@std@@@std@@V?$_Tree_val@U?$_Tree_simple_types@U?$pair@$$CBW4AcceptEncodingMethods@cpr@@V?$basic_string@DU?$char_traits@D@std@@V?$allocator@D@2@@std@@@std@@@std@@@2@$00@std@@QAEAAV?$allocator@U?$_Tree_node@U?$pair@$$CBW4AcceptEncodingMethods@cpr@@V?$basic_string@DU?$char_traits@D@std@@V?$allocator@D@2@@std@@@std@@PAX@std@@@2@XZ
	?_Get_first@?$_Compressed_pair@V?$allocator@U?$_Tree_node@U?$pair@$$CBW4AcceptEncodingMethods@cpr@@V?$basic_string@DU?$char_traits@D@std@@V?$allocator@D@2@@std@@@std@@PAX@std@@@std@@V?$_Tree_val@U?$_Tree_simple_types@U?$pair@$$CBW4AcceptEncodingMethods@cpr@@V?$basic_string@DU?$char_traits@D@std@@V?$allocator@D@2@@std@@@std@@@std@@@2@$00@std@@QBEABV?$allocator@U?$_Tree_node@U?$pair@$$CBW4AcceptEncodingMethods@cpr@@V?$basic_string@DU?$char_traits@D@std@@V?$allocator@D@2@@std@@@std@@PAX@std@@@2@XZ
	?_Get_first@?$_Compressed_pair@V?$allocator@UPair@cpr@@@std@@V?$_Vector_val@U?$_Simple_types@UPair@cpr@@@std@@@2@$00@std@@QAEAAV?$allocator@UPair@cpr@@@2@XZ
	?_Get_first@?$_Compressed_pair@V?$allocator@UPair@cpr@@@std@@V?$_Vector_val@U?$_Simple_types@UPair@cpr@@@std@@@2@$00@std@@QBEABV?$allocator@UPair@cpr@@@2@XZ
	?_Get_first@?$_Compressed_pair@V?$allocator@UParameter@cpr@@@std@@V?$_Vector_val@U?$_Simple_types@UParameter@cpr@@@std@@@2@$00@std@@QAEAAV?$allocator@UParameter@cpr@@@2@XZ
	?_Get_first@?$_Compressed_pair@V?$allocator@UParameter@cpr@@@std@@V?$_Vector_val@U?$_Simple_types@UParameter@cpr@@@std@@@2@$00@std@@QBEABV?$allocator@UParameter@cpr@@@2@XZ
	?_Get_first@?$_Compressed_pair@V?$allocator@UPart@cpr@@@std@@V?$_Vector_val@U?$_Simple_types@UPart@cpr@@@std@@@2@$00@std@@QAEAAV?$allocator@UPart@cpr@@@2@XZ
	?_Get_first@?$_Compressed_pair@V?$allocator@UPart@cpr@@@std@@V?$_Vector_val@U?$_Simple_types@UPart@cpr@@@std@@@2@$00@std@@QBEABV?$allocator@UPart@cpr@@@2@XZ
	?_Get_first@?$_Compressed_pair@V?$allocator@Ucurl_forms@@@std@@V?$_Vector_val@U?$_Simple_types@Ucurl_forms@@@std@@@2@$00@std@@QAEAAV?$allocator@Ucurl_forms@@@2@XZ
	?_Get_first@?$_Compressed_pair@V?$allocator@Ucurl_forms@@@std@@V?$_Vector_val@U?$_Simple_types@Ucurl_forms@@@std@@@2@$00@std@@QBEABV?$allocator@Ucurl_forms@@@2@XZ
	?_Get_first@?$_Compressed_pair@V?$allocator@V?$basic_string@DU?$char_traits@D@std@@V?$allocator@D@2@@std@@@std@@V?$_Vector_val@U?$_Simple_types@V?$basic_string@DU?$char_traits@D@std@@V?$allocator@D@2@@std@@@std@@@2@$00@std@@QAEAAV?$allocator@V?$basic_string@DU?$char_traits@D@std@@V?$allocator@D@2@@std@@@2@XZ
	?_Get_first@?$_Compressed_pair@V?$allocator@V?$basic_string@DU?$char_traits@D@std@@V?$allocator@D@2@@std@@@std@@V?$_Vector_val@U?$_Simple_types@V?$basic_string@DU?$char_traits@D@std@@V?$allocator@D@2@@std@@@std@@@2@$00@std@@QBEABV?$allocator@V?$basic_string@DU?$char_traits@D@std@@V?$allocator@D@2@@std@@@2@XZ
	?_Get_first@?$_Compressed_pair@V?$allocator@V?$function@$$A6AXXZ@std@@@std@@V?$_Deque_val@U?$_Deque_simple_types@V?$function@$$A6AXXZ@std@@@std@@@2@$00@std@@QAEAAV?$allocator@V?$function@$$A6AXXZ@std@@@2@XZ
	?_Get_first@?$_Compressed_pair@V?$allocator@V?$function@$$A6AXXZ@std@@@std@@V?$_Deque_val@U?$_Deque_simple_types@V?$function@$$A6AXXZ@std@@@std@@@2@$00@std@@QBEABV?$allocator@V?$function@$$A6AXXZ@std@@@2@XZ
	?_Get_first@?$_Compressed_pair@V?$allocator@V?$shared_ptr@VInterceptor@cpr@@@std@@@std@@V?$_Deque_val@U?$_Deque_simple_types@V?$shared_ptr@VInterceptor@cpr@@@std@@@std@@@2@$00@std@@QAEAAV?$allocator@V?$shared_ptr@VInterceptor@cpr@@@std@@@2@XZ
	?_Get_first@?$_Compressed_pair@V?$allocator@V?$shared_ptr@VInterceptor@cpr@@@std@@@std@@V?$_Deque_val@U?$_Deque_simple_types@V?$shared_ptr@VInterceptor@cpr@@@std@@@std@@@2@$00@std@@QBEABV?$allocator@V?$shared_ptr@VInterceptor@cpr@@@std@@@2@XZ
	?_Get_first@?$_Compressed_pair@V?$allocator@VCertInfo@cpr@@@std@@V?$_Vector_val@U?$_Simple_types@VCertInfo@cpr@@@std@@@2@$00@std@@QAEAAV?$allocator@VCertInfo@cpr@@@2@XZ
	?_Get_first@?$_Compressed_pair@V?$allocator@VCertInfo@cpr@@@std@@V?$_Vector_val@U?$_Simple_types@VCertInfo@cpr@@@std@@@2@$00@std@@QBEABV?$allocator@VCertInfo@cpr@@@2@XZ
	?_Get_first@?$_Compressed_pair@V?$allocator@VCookie@cpr@@@std@@V?$_Vector_val@U?$_Simple_types@VCookie@cpr@@@std@@@2@$00@std@@QAEAAV?$allocator@VCookie@cpr@@@2@XZ
	?_Get_first@?$_Compressed_pair@V?$allocator@VCookie@cpr@@@std@@V?$_Vector_val@U?$_Simple_types@VCookie@cpr@@@std@@@2@$00@std@@QBEABV?$allocator@VCookie@cpr@@@2@XZ
	?_Get_scary@?$_Tree@V?$_Tmap_traits@V?$basic_string@DU?$char_traits@D@std@@V?$allocator@D@2@@std@@V12@U?$less@V?$basic_string@DU?$char_traits@D@std@@V?$allocator@D@2@@std@@@2@V?$allocator@U?$pair@$$CBV?$basic_string@DU?$char_traits@D@std@@V?$allocator@D@2@@std@@V12@@std@@@2@$0A@@std@@@std@@IAEPAV?$_Tree_val@U?$_Tree_simple_types@U?$pair@$$CBV?$basic_string@DU?$char_traits@D@std@@V?$allocator@D@2@@std@@V12@@std@@@std@@@2@XZ
	?_Get_scary@?$_Tree@V?$_Tmap_traits@V?$basic_string@DU?$char_traits@D@std@@V?$allocator@D@2@@std@@V12@U?$less@V?$basic_string@DU?$char_traits@D@std@@V?$allocator@D@2@@std@@@2@V?$allocator@U?$pair@$$CBV?$basic_string@DU?$char_traits@D@std@@V?$allocator@D@2@@std@@V12@@std@@@2@$0A@@std@@@std@@IBEPBV?$_Tree_val@U?$_Tree_simple_types@U?$pair@$$CBV?$basic_string@DU?$char_traits@D@std@@V?$allocator@D@2@@std@@V12@@std@@@std@@@2@XZ
	?_Get_scary@?$_Tree@V?$_Tmap_traits@V?$basic_string@DU?$char_traits@D@std@@V?$allocator@D@2@@std@@V12@UCaseInsensitiveCompare@cpr@@V?$allocator@U?$pair@$$CBV?$basic_string@DU?$char_traits@D@std@@V?$allocator@D@2@@std@@V12@@std@@@2@$0A@@std@@@std@@IAEPAV?$_Tree_val@U?$_Tree_simple_types@U?$pair@$$CBV?$basic_string@DU?$char_traits@D@std@@V?$allocator@D@2@@std@@V12@@std@@@std@@@2@XZ
	?_Get_scary@?$_Tree@V?$_Tmap_traits@V?$basic_string@DU?$char_traits@D@std@@V?$allocator@D@2@@std@@V12@UCaseInsensitiveCompare@cpr@@V?$allocator@U?$pair@$$CBV?$basic_string@DU?$char_traits@D@std@@V?$allocator@D@2@@std@@V12@@std@@@2@$0A@@std@@@std@@IBEPBV?$_Tree_val@U?$_Tree_simple_types@U?$pair@$$CBV?$basic_string@DU?$char_traits@D@std@@V?$allocator@D@2@@std@@V12@@std@@@std@@@2@XZ
	?_Get_scary@?$_Tree@V?$_Tmap_traits@V?$basic_string@DU?$char_traits@D@std@@V?$allocator@D@2@@std@@VEncodedAuthentication@cpr@@U?$less@V?$basic_string@DU?$char_traits@D@std@@V?$allocator@D@2@@std@@@2@V?$allocator@U?$pair@$$CBV?$basic_string@DU?$char_traits@D@std@@V?$allocator@D@2@@std@@VEncodedAuthentication@cpr@@@std@@@2@$0A@@std@@@std@@IAEPAV?$_Tree_val@U?$_Tree_simple_types@U?$pair@$$CBV?$basic_string@DU?$char_traits@D@std@@V?$allocator@D@2@@std@@VEncodedAuthentication@cpr@@@std@@@std@@@2@XZ
	?_Get_scary@?$_Tree@V?$_Tmap_traits@V?$basic_string@DU?$char_traits@D@std@@V?$allocator@D@2@@std@@VEncodedAuthentication@cpr@@U?$less@V?$basic_string@DU?$char_traits@D@std@@V?$allocator@D@2@@std@@@2@V?$allocator@U?$pair@$$CBV?$basic_string@DU?$char_traits@D@std@@V?$allocator@D@2@@std@@VEncodedAuthentication@cpr@@@std@@@2@$0A@@std@@@std@@IBEPBV?$_Tree_val@U?$_Tree_simple_types@U?$pair@$$CBV?$basic_string@DU?$char_traits@D@std@@V?$allocator@D@2@@std@@VEncodedAuthentication@cpr@@@std@@@std@@@2@XZ
	?_Get_scary@?$_Tree@V?$_Tmap_traits@W4AcceptEncodingMethods@cpr@@V?$basic_string@DU?$char_traits@D@std@@V?$allocator@D@2@@std@@U?$less@W4AcceptEncodingMethods@cpr@@@4@V?$allocator@U?$pair@$$CBW4AcceptEncodingMethods@cpr@@V?$basic_string@DU?$char_traits@D@std@@V?$allocator@D@2@@std@@@std@@@4@$0A@@std@@@std@@IAEPAV?$_Tree_val@U?$_Tree_simple_types@U?$pair@$$CBW4AcceptEncodingMethods@cpr@@V?$basic_string@DU?$char_traits@D@std@@V?$allocator@D@2@@std@@@std@@@std@@@2@XZ
	?_Get_scary@?$_Tree@V?$_Tmap_traits@W4AcceptEncodingMethods@cpr@@V?$basic_string@DU?$char_traits@D@std@@V?$allocator@D@2@@std@@U?$less@W4AcceptEncodingMethods@cpr@@@4@V?$allocator@U?$pair@$$CBW4AcceptEncodingMethods@cpr@@V?$basic_string@DU?$char_traits@D@std@@V?$allocator@D@2@@std@@@std@@@4@$0A@@std@@@std@@IBEPBV?$_Tree_val@U?$_Tree_simple_types@U?$pair@$$CBW4AcceptEncodingMethods@cpr@@V?$basic_string@DU?$char_traits@D@std@@V?$allocator@D@2@@std@@@std@@@std@@@2@XZ
	?_Get_state@?$_Promise@VResponse@cpr@@@std@@QAEAAV?$_State_manager@VResponse@cpr@@@2@XZ
	?_Get_state_for_future@?$_Promise@VResponse@cpr@@@std@@QAEAAV?$_State_manager@VResponse@cpr@@@2@XZ
	?_Get_state_for_set@?$_Promise@VResponse@cpr@@@std@@QAEAAV?$_State_manager@VResponse@cpr@@@2@XZ
	?_Get_value@?$_Associated_state@VResponse@cpr@@@std@@UAEAAVResponse@cpr@@_N@Z
	?_Getal@?$_Tree@V?$_Tmap_traits@V?$basic_string@DU?$char_traits@D@std@@V?$allocator@D@2@@std@@V12@U?$less@V?$basic_string@DU?$char_traits@D@std@@V?$allocator@D@2@@std@@@2@V?$allocator@U?$pair@$$CBV?$basic_string@DU?$char_traits@D@std@@V?$allocator@D@2@@std@@V12@@std@@@2@$0A@@std@@@std@@IAEAAV?$allocator@U?$_Tree_node@U?$pair@$$CBV?$basic_string@DU?$char_traits@D@std@@V?$allocator@D@2@@std@@V12@@std@@PAX@std@@@2@XZ
	?_Getal@?$_Tree@V?$_Tmap_traits@V?$basic_string@DU?$char_traits@D@std@@V?$allocator@D@2@@std@@V12@U?$less@V?$basic_string@DU?$char_traits@D@std@@V?$allocator@D@2@@std@@@2@V?$allocator@U?$pair@$$CBV?$basic_string@DU?$char_traits@D@std@@V?$allocator@D@2@@std@@V12@@std@@@2@$0A@@std@@@std@@IBEABV?$allocator@U?$_Tree_node@U?$pair@$$CBV?$basic_string@DU?$char_traits@D@std@@V?$allocator@D@2@@std@@V12@@std@@PAX@std@@@2@XZ
	?_Getal@?$_Tree@V?$_Tmap_traits@V?$basic_string@DU?$char_traits@D@std@@V?$allocator@D@2@@std@@V12@UCaseInsensitiveCompare@cpr@@V?$allocator@U?$pair@$$CBV?$basic_string@DU?$char_traits@D@std@@V?$allocator@D@2@@std@@V12@@std@@@2@$0A@@std@@@std@@IAEAAV?$allocator@U?$_Tree_node@U?$pair@$$CBV?$basic_string@DU?$char_traits@D@std@@V?$allocator@D@2@@std@@V12@@std@@PAX@std@@@2@XZ
	?_Getal@?$_Tree@V?$_Tmap_traits@V?$basic_string@DU?$char_traits@D@std@@V?$allocator@D@2@@std@@V12@UCaseInsensitiveCompare@cpr@@V?$allocator@U?$pair@$$CBV?$basic_string@DU?$char_traits@D@std@@V?$allocator@D@2@@std@@V12@@std@@@2@$0A@@std@@@std@@IBEABV?$allocator@U?$_Tree_node@U?$pair@$$CBV?$basic_string@DU?$char_traits@D@std@@V?$allocator@D@2@@std@@V12@@std@@PAX@std@@@2@XZ
	?_Getal@?$_Tree@V?$_Tmap_traits@V?$basic_string@DU?$char_traits@D@std@@V?$allocator@D@2@@std@@VEncodedAuthentication@cpr@@U?$less@V?$basic_string@DU?$char_traits@D@std@@V?$allocator@D@2@@std@@@2@V?$allocator@U?$pair@$$CBV?$basic_string@DU?$char_traits@D@std@@V?$allocator@D@2@@std@@VEncodedAuthentication@cpr@@@std@@@2@$0A@@std@@@std@@IAEAAV?$allocator@U?$_Tree_node@U?$pair@$$CBV?$basic_string@DU?$char_traits@D@std@@V?$allocator@D@2@@std@@VEncodedAuthentication@cpr@@@std@@PAX@std@@@2@XZ
	?_Getal@?$_Tree@V?$_Tmap_traits@V?$basic_string@DU?$char_traits@D@std@@V?$allocator@D@2@@std@@VEncodedAuthentication@cpr@@U?$less@V?$basic_string@DU?$char_traits@D@std@@V?$allocator@D@2@@std@@@2@V?$allocator@U?$pair@$$CBV?$basic_string@DU?$char_traits@D@std@@V?$allocator@D@2@@std@@VEncodedAuthentication@cpr@@@std@@@2@$0A@@std@@@std@@IBEABV?$allocator@U?$_Tree_node@U?$pair@$$CBV?$basic_string@DU?$char_traits@D@std@@V?$allocator@D@2@@std@@VEncodedAuthentication@cpr@@@std@@PAX@std@@@2@XZ
	?_Getal@?$_Tree@V?$_Tmap_traits@W4AcceptEncodingMethods@cpr@@V?$basic_string@DU?$char_traits@D@std@@V?$allocator@D@2@@std@@U?$less@W4AcceptEncodingMethods@cpr@@@4@V?$allocator@U?$pair@$$CBW4AcceptEncodingMethods@cpr@@V?$basic_string@DU?$char_traits@D@std@@V?$allocator@D@2@@std@@@std@@@4@$0A@@std@@@std@@IAEAAV?$allocator@U?$_Tree_node@U?$pair@$$CBW4AcceptEncodingMethods@cpr@@V?$basic_string@DU?$char_traits@D@std@@V?$allocator@D@2@@std@@@std@@PAX@std@@@2@XZ
	?_Getal@?$_Tree@V?$_Tmap_traits@W4AcceptEncodingMethods@cpr@@V?$basic_string@DU?$char_traits@D@std@@V?$allocator@D@2@@std@@U?$less@W4AcceptEncodingMethods@cpr@@@4@V?$allocator@U?$pair@$$CBW4AcceptEncodingMethods@cpr@@V?$basic_string@DU?$char_traits@D@std@@V?$allocator@D@2@@std@@@std@@@4@$0A@@std@@@std@@IBEABV?$allocator@U?$_Tree_node@U?$pair@$$CBW4AcceptEncodingMethods@cpr@@V?$basic_string@DU?$char_traits@D@std@@V?$allocator@D@2@@std@@@std@@PAX@std@@@2@XZ
	?_Getal@?$basic_string@DU?$char_traits@D@std@@V?$allocator@D@2@@std@@AAEAAV?$allocator@D@2@XZ
	?_Getal@?$basic_string@DU?$char_traits@D@std@@V?$allocator@D@2@@std@@ABEABV?$allocator@D@2@XZ
	?_Getal@?$deque@V?$function@$$A6AXXZ@std@@V?$allocator@V?$function@$$A6AXXZ@std@@@2@@std@@AAEAAV?$allocator@V?$function@$$A6AXXZ@std@@@2@XZ
	?_Getal@?$deque@V?$function@$$A6AXXZ@std@@V?$allocator@V?$function@$$A6AXXZ@std@@@2@@std@@ABEABV?$allocator@V?$function@$$A6AXXZ@std@@@2@XZ
	?_Getal@?$deque@V?$shared_ptr@VInterceptor@cpr@@@std@@V?$allocator@V?$shared_ptr@VInterceptor@cpr@@@std@@@2@@std@@AAEAAV?$allocator@V?$shared_ptr@VInterceptor@cpr@@@std@@@2@XZ
	?_Getal@?$deque@V?$shared_ptr@VInterceptor@cpr@@@std@@V?$allocator@V?$shared_ptr@VInterceptor@cpr@@@std@@@2@@std@@ABEABV?$allocator@V?$shared_ptr@VInterceptor@cpr@@@std@@@2@XZ
	?_Getal@?$list@UThreadData@ThreadPool@cpr@@V?$allocator@UThreadData@ThreadPool@cpr@@@std@@@std@@AAEAAV?$allocator@U?$_List_node@UThreadData@ThreadPool@cpr@@PAX@std@@@2@XZ
	?_Getal@?$list@UThreadData@ThreadPool@cpr@@V?$allocator@UThreadData@ThreadPool@cpr@@@std@@@std@@ABEABV?$allocator@U?$_List_node@UThreadData@ThreadPool@cpr@@PAX@std@@@2@XZ
	?_Getal@?$vector@UPair@cpr@@V?$allocator@UPair@cpr@@@std@@@std@@AAEAAV?$allocator@UPair@cpr@@@2@XZ
	?_Getal@?$vector@UPair@cpr@@V?$allocator@UPair@cpr@@@std@@@std@@ABEABV?$allocator@UPair@cpr@@@2@XZ
	?_Getal@?$vector@UParameter@cpr@@V?$allocator@UParameter@cpr@@@std@@@std@@AAEAAV?$allocator@UParameter@cpr@@@2@XZ
	?_Getal@?$vector@UParameter@cpr@@V?$allocator@UParameter@cpr@@@std@@@std@@ABEABV?$allocator@UParameter@cpr@@@2@XZ
	?_Getal@?$vector@UPart@cpr@@V?$allocator@UPart@cpr@@@std@@@std@@AAEAAV?$allocator@UPart@cpr@@@2@XZ
	?_Getal@?$vector@UPart@cpr@@V?$allocator@UPart@cpr@@@std@@@std@@ABEABV?$allocator@UPart@cpr@@@2@XZ
	?_Getal@?$vector@Ucurl_forms@@V?$allocator@Ucurl_forms@@@std@@@std@@AAEAAV?$allocator@Ucurl_forms@@@2@XZ
	?_Getal@?$vector@Ucurl_forms@@V?$allocator@Ucurl_forms@@@std@@@std@@ABEABV?$allocator@Ucurl_forms@@@2@XZ
	?_Getal@?$vector@V?$basic_string@DU?$char_traits@D@std@@V?$allocator@D@2@@std@@V?$allocator@V?$basic_string@DU?$char_traits@D@std@@V?$allocator@D@2@@std@@@2@@std@@AAEAAV?$allocator@V?$basic_string@DU?$char_traits@D@std@@V?$allocator@D@2@@std@@@2@XZ
	?_Getal@?$vector@V?$basic_string@DU?$char_traits@D@std@@V?$allocator@D@2@@std@@V?$allocator@V?$basic_string@DU?$char_traits@D@std@@V?$allocator@D@2@@std@@@2@@std@@ABEABV?$allocator@V?$basic_string@DU?$char_traits@D@std@@V?$allocator@D@2@@std@@@2@XZ
	?_Getal@?$vector@VCertInfo@cpr@@V?$allocator@VCertInfo@cpr@@@std@@@std@@AAEAAV?$allocator@VCertInfo@cpr@@@2@XZ
	?_Getal@?$vector@VCertInfo@cpr@@V?$allocator@VCertInfo@cpr@@@std@@@std@@ABEABV?$allocator@VCertInfo@cpr@@@2@XZ
	?_Getal@?$vector@VCookie@cpr@@V?$allocator@VCookie@cpr@@@std@@@std@@AAEAAV?$allocator@VCookie@cpr@@@2@XZ
	?_Getal@?$vector@VCookie@cpr@@V?$allocator@VCookie@cpr@@@std@@@std@@ABEABV?$allocator@VCookie@cpr@@@2@XZ
	?_Getblock@?$_Deque_val@U?$_Deque_simple_types@V?$function@$$A6AXXZ@std@@@std@@@std@@QBEII@Z
	?_Getblock@?$_Deque_val@U?$_Deque_simple_types@V?$shared_ptr@VInterceptor@cpr@@@std@@@std@@@std@@QBEII@Z
	?_Getblock@?$deque@V?$function@$$A6AXXZ@std@@V?$allocator@V?$function@$$A6AXXZ@std@@@2@@std@@ABEII@Z
	?_Getblock@?$deque@V?$shared_ptr@VInterceptor@cpr@@@std@@V?$allocator@V?$shared_ptr@VInterceptor@cpr@@@std@@@2@@std@@ABEII@Z
	?_Getcomp@?$_Tree@V?$_Tmap_traits@V?$basic_string@DU?$char_traits@D@std@@V?$allocator@D@2@@std@@V12@U?$less@V?$basic_string@DU?$char_traits@D@std@@V?$allocator@D@2@@std@@@2@V?$allocator@U?$pair@$$CBV?$basic_string@DU?$char_traits@D@std@@V?$allocator@D@2@@std@@V12@@std@@@2@$0A@@std@@@std@@IAEAAU?$less@V?$basic_string@DU?$char_traits@D@std@@V?$allocator@D@2@@std@@@2@XZ
	?_Getcomp@?$_Tree@V?$_Tmap_traits@V?$basic_string@DU?$char_traits@D@std@@V?$allocator@D@2@@std@@V12@U?$less@V?$basic_string@DU?$char_traits@D@std@@V?$allocator@D@2@@std@@@2@V?$allocator@U?$pair@$$CBV?$basic_string@DU?$char_traits@D@std@@V?$allocator@D@2@@std@@V12@@std@@@2@$0A@@std@@@std@@IBEABU?$less@V?$basic_string@DU?$char_traits@D@std@@V?$allocator@D@2@@std@@@2@XZ
	?_Getcomp@?$_Tree@V?$_Tmap_traits@V?$basic_string@DU?$char_traits@D@std@@V?$allocator@D@2@@std@@V12@UCaseInsensitiveCompare@cpr@@V?$allocator@U?$pair@$$CBV?$basic_string@DU?$char_traits@D@std@@V?$allocator@D@2@@std@@V12@@std@@@2@$0A@@std@@@std@@IAEAAUCaseInsensitiveCompare@cpr@@XZ
	?_Getcomp@?$_Tree@V?$_Tmap_traits@V?$basic_string@DU?$char_traits@D@std@@V?$allocator@D@2@@std@@V12@UCaseInsensitiveCompare@cpr@@V?$allocator@U?$pair@$$CBV?$basic_string@DU?$char_traits@D@std@@V?$allocator@D@2@@std@@V12@@std@@@2@$0A@@std@@@std@@IBEABUCaseInsensitiveCompare@cpr@@XZ
	?_Getcomp@?$_Tree@V?$_Tmap_traits@V?$basic_string@DU?$char_traits@D@std@@V?$allocator@D@2@@std@@VEncodedAuthentication@cpr@@U?$less@V?$basic_string@DU?$char_traits@D@std@@V?$allocator@D@2@@std@@@2@V?$allocator@U?$pair@$$CBV?$basic_string@DU?$char_traits@D@std@@V?$allocator@D@2@@std@@VEncodedAuthentication@cpr@@@std@@@2@$0A@@std@@@std@@IAEAAU?$less@V?$basic_string@DU?$char_traits@D@std@@V?$allocator@D@2@@std@@@2@XZ
	?_Getcomp@?$_Tree@V?$_Tmap_traits@V?$basic_string@DU?$char_traits@D@std@@V?$allocator@D@2@@std@@VEncodedAuthentication@cpr@@U?$less@V?$basic_string@DU?$char_traits@D@std@@V?$allocator@D@2@@std@@@2@V?$allocator@U?$pair@$$CBV?$basic_string@DU?$char_traits@D@std@@V?$allocator@D@2@@std@@VEncodedAuthentication@cpr@@@std@@@2@$0A@@std@@@std@@IBEABU?$less@V?$basic_string@DU?$char_traits@D@std@@V?$allocator@D@2@@std@@@2@XZ
	?_Getcomp@?$_Tree@V?$_Tmap_traits@W4AcceptEncodingMethods@cpr@@V?$basic_string@DU?$char_traits@D@std@@V?$allocator@D@2@@std@@U?$less@W4AcceptEncodingMethods@cpr@@@4@V?$allocator@U?$pair@$$CBW4AcceptEncodingMethods@cpr@@V?$basic_string@DU?$char_traits@D@std@@V?$allocator@D@2@@std@@@std@@@4@$0A@@std@@@std@@IBEABU?$less@W4AcceptEncodingMethods@cpr@@@2@XZ
	?_Getcont@_Iterator_base12@std@@QBEPBU_Container_base12@2@XZ
	?_Getfacet@locale@std@@QBEPBVfacet@12@I@Z
	?_Getimpl@?$_Func_class@VResponse@cpr@@$$V@std@@ABEPAV?$_Func_base@VResponse@cpr@@$$V@2@XZ
	?_Getimpl@?$_Func_class@X$$V@std@@ABEPAV?$_Func_base@X$$V@2@XZ
	?_Getimpl@?$_Func_class@XW4InfoType@DebugCallback@cpr@@V?$basic_string@DU?$char_traits@D@std@@V?$allocator@D@2@@std@@H@std@@ABEPAV?$_Func_base@XW4InfoType@DebugCallback@cpr@@V?$basic_string@DU?$char_traits@D@std@@V?$allocator@D@2@@std@@H@2@XZ
	?_Getimpl@?$_Func_class@_NPADAAIH@std@@ABEPAV?$_Func_base@_NPADAAIH@2@XZ
	?_Getimpl@?$_Func_class@_NV?$basic_string@DU?$char_traits@D@std@@V?$allocator@D@2@@std@@H@std@@ABEPAV?$_Func_base@_NV?$basic_string@DU?$char_traits@D@std@@V?$allocator@D@2@@std@@H@2@XZ
	?_Getimpl@?$_Func_class@_N_J_J_J_JH@std@@ABEPAV?$_Func_base@_N_J_J_J_JH@2@XZ
	?_Getstate@?$basic_stringbuf@DU?$char_traits@D@std@@V?$allocator@D@2@@std@@CAHH@Z
	?_Growmap@?$deque@V?$function@$$A6AXXZ@std@@V?$allocator@V?$function@$$A6AXXZ@std@@@2@@std@@AAEXI@Z
	?_Growmap@?$deque@V?$shared_ptr@VInterceptor@cpr@@@std@@V?$allocator@V?$shared_ptr@VInterceptor@cpr@@@std@@@2@@std@@AAEXI@Z
	?_Has_deferred_function@?$_Associated_state@VResponse@cpr@@@std@@EBE_NXZ
	?_Incref@?$_Ptr_base@UCurlHolder@cpr@@@std@@IBEXXZ
	?_Incref@?$_Ptr_base@V?$packaged_task@$$A6A?AVResponse@cpr@@XZ@std@@@std@@IBEXXZ
	?_Incref@?$_Ptr_base@VInterceptor@cpr@@@std@@IBEXXZ
	?_Incref@?$_Ptr_base@VSession@cpr@@@std@@IBEXXZ
	?_Incref@?$_Ptr_base@Vthread@std@@@std@@IBEXXZ
	?_Incref@_Ref_count_base@std@@QAEXXZ
	?_Incref_nz@_Ref_count_base@std@@QAE_NXZ
	?_Init@?$basic_stringbuf@DU?$char_traits@D@std@@V?$allocator@D@2@@std@@IAEXPBDIH@Z
	?_Insert_node@?$_Tree_val@U?$_Tree_simple_types@U?$pair@$$CBV?$basic_string@DU?$char_traits@D@std@@V?$allocator@D@2@@std@@V12@@std@@@std@@@std@@QAEPAU?$_Tree_node@U?$pair@$$CBV?$basic_string@DU?$char_traits@D@std@@V?$allocator@D@2@@std@@V12@@std@@PAX@2@U?$_Tree_id@PAU?$_Tree_node@U?$pair@$$CBV?$basic_string@DU?$char_traits@D@std@@V?$allocator@D@2@@std@@V12@@std@@PAX@std@@@2@QAU32@@Z
	?_Insert_node@?$_Tree_val@U?$_Tree_simple_types@U?$pair@$$CBV?$basic_string@DU?$char_traits@D@std@@V?$allocator@D@2@@std@@VEncodedAuthentication@cpr@@@std@@@std@@@std@@QAEPAU?$_Tree_node@U?$pair@$$CBV?$basic_string@DU?$char_traits@D@std@@V?$allocator@D@2@@std@@VEncodedAuthentication@cpr@@@std@@PAX@2@U?$_Tree_id@PAU?$_Tree_node@U?$pair@$$CBV?$basic_string@DU?$char_traits@D@std@@V?$allocator@D@2@@std@@VEncodedAuthentication@cpr@@@std@@PAX@std@@@2@QAU32@@Z
	?_Insert_node@?$_Tree_val@U?$_Tree_simple_types@U?$pair@$$CBW4AcceptEncodingMethods@cpr@@V?$basic_string@DU?$char_traits@D@std@@V?$allocator@D@2@@std@@@std@@@std@@@std@@QAEPAU?$_Tree_node@U?$pair@$$CBW4AcceptEncodingMethods@cpr@@V?$basic_string@DU?$char_traits@D@std@@V?$allocator@D@2@@std@@@std@@PAX@2@U?$_Tree_id@PAU?$_Tree_node@U?$pair@$$CBW4AcceptEncodingMethods@cpr@@V?$basic_string@DU?$char_traits@D@std@@V?$allocator@D@2@@std@@@std@@PAX@std@@@2@QAU32@@Z
	?_Is_ready@?$_Associated_state@VResponse@cpr@@@std@@QBE_NXZ
	?_Is_ready@?$_Promise@VResponse@cpr@@@std@@QBE_NXZ
	?_Is_ready@?$_State_manager@VResponse@cpr@@@std@@QBE_NXZ
	?_Large_string_engaged@?$_String_val@U?$_Simple_types@D@std@@@std@@QBE_NXZ
	?_Local@?$_Func_class@VResponse@cpr@@$$V@std@@ABE_NXZ
	?_Local@?$_Func_class@X$$V@std@@ABE_NXZ
	?_Local@?$_Func_class@XW4InfoType@DebugCallback@cpr@@V?$basic_string@DU?$char_traits@D@std@@V?$allocator@D@2@@std@@H@std@@ABE_NXZ
	?_Local@?$_Func_class@_NPADAAIH@std@@ABE_NXZ
	?_Local@?$_Func_class@_NV?$basic_string@DU?$char_traits@D@std@@V?$allocator@D@2@@std@@H@std@@ABE_NXZ
	?_Local@?$_Func_class@_N_J_J_J_JH@std@@ABE_NXZ
	?_Lrotate@?$_Tree_val@U?$_Tree_simple_types@U?$pair@$$CBV?$basic_string@DU?$char_traits@D@std@@V?$allocator@D@2@@std@@V12@@std@@@std@@@std@@QAEXPAU?$_Tree_node@U?$pair@$$CBV?$basic_string@DU?$char_traits@D@std@@V?$allocator@D@2@@std@@V12@@std@@PAX@2@@Z
	?_Lrotate@?$_Tree_val@U?$_Tree_simple_types@U?$pair@$$CBV?$basic_string@DU?$char_traits@D@std@@V?$allocator@D@2@@std@@VEncodedAuthentication@cpr@@@std@@@std@@@std@@QAEXPAU?$_Tree_node@U?$pair@$$CBV?$basic_string@DU?$char_traits@D@std@@V?$allocator@D@2@@std@@VEncodedAuthentication@cpr@@@std@@PAX@2@@Z
	?_Lrotate@?$_Tree_val@U?$_Tree_simple_types@U?$pair@$$CBW4AcceptEncodingMethods@cpr@@V?$basic_string@DU?$char_traits@D@std@@V?$allocator@D@2@@std@@@std@@@std@@@std@@QAEXPAU?$_Tree_node@U?$pair@$$CBW4AcceptEncodingMethods@cpr@@V?$basic_string@DU?$char_traits@D@std@@V?$allocator@D@2@@std@@@std@@PAX@2@@Z
	?_Make_iter@?$list@UThreadData@ThreadPool@cpr@@V?$allocator@UThreadData@ThreadPool@cpr@@@std@@@std@@QBE?AV?$_List_iterator@V?$_List_val@U?$_List_simple_types@UThreadData@ThreadPool@cpr@@@std@@@std@@@2@PAU?$_List_node@UThreadData@ThreadPool@cpr@@PAX@2@@Z
	?_Maklocwcs@std@@YAPA_WPB_W@Z
	?_Map@?$deque@V?$function@$$A6AXXZ@std@@V?$allocator@V?$function@$$A6AXXZ@std@@@2@@std@@AAEAAPAPAV?$function@$$A6AXXZ@2@XZ
	?_Map@?$deque@V?$shared_ptr@VInterceptor@cpr@@@std@@V?$allocator@V?$shared_ptr@VInterceptor@cpr@@@std@@@2@@std@@AAEAAPAPAV?$shared_ptr@VInterceptor@cpr@@@2@XZ
	?_Mapsize@?$deque@V?$function@$$A6AXXZ@std@@V?$allocator@V?$function@$$A6AXXZ@std@@@2@@std@@AAEAAIXZ
	?_Mapsize@?$deque@V?$shared_ptr@VInterceptor@cpr@@@std@@V?$allocator@V?$shared_ptr@VInterceptor@cpr@@@std@@@2@@std@@AAEAAIXZ
	?_Mark@?$_String_bitmap@D$00@std@@QAE_NPBDQBD@Z
	?_Match@?$_String_bitmap@D$00@std@@QBE_ND@Z
	?_Max@?$_Tree_val@U?$_Tree_simple_types@U?$pair@$$CBV?$basic_string@DU?$char_traits@D@std@@V?$allocator@D@2@@std@@V12@@std@@@std@@@std@@SAPAU?$_Tree_node@U?$pair@$$CBV?$basic_string@DU?$char_traits@D@std@@V?$allocator@D@2@@std@@V12@@std@@PAX@2@PAU32@@Z
	?_Max@?$_Tree_val@U?$_Tree_simple_types@U?$pair@$$CBV?$basic_string@DU?$char_traits@D@std@@V?$allocator@D@2@@std@@VEncodedAuthentication@cpr@@@std@@@std@@@std@@SAPAU?$_Tree_node@U?$pair@$$CBV?$basic_string@DU?$char_traits@D@std@@V?$allocator@D@2@@std@@VEncodedAuthentication@cpr@@@std@@PAX@2@PAU32@@Z
	?_Max@?$_Tree_val@U?$_Tree_simple_types@U?$pair@$$CBW4AcceptEncodingMethods@cpr@@V?$basic_string@DU?$char_traits@D@std@@V?$allocator@D@2@@std@@@std@@@std@@@std@@SAPAU?$_Tree_node@U?$pair@$$CBW4AcceptEncodingMethods@cpr@@V?$basic_string@DU?$char_traits@D@std@@V?$allocator@D@2@@std@@@std@@PAX@2@PAU32@@Z
	?_Maybe_run_deferred_function@?$_Associated_state@VResponse@cpr@@@std@@IAEXAAV?$unique_lock@Vmutex@std@@@2@@Z
	?_Memcpy_val_from@?$basic_string@DU?$char_traits@D@std@@V?$allocator@D@2@@std@@AAEXABV12@@Z
	?_Min@?$_Tree_val@U?$_Tree_simple_types@U?$pair@$$CBV?$basic_string@DU?$char_traits@D@std@@V?$allocator@D@2@@std@@V12@@std@@@std@@@std@@SAPAU?$_Tree_node@U?$pair@$$CBV?$basic_string@DU?$char_traits@D@std@@V?$allocator@D@2@@std@@V12@@std@@PAX@2@PAU32@@Z
	?_Min@?$_Tree_val@U?$_Tree_simple_types@U?$pair@$$CBV?$basic_string@DU?$char_traits@D@std@@V?$allocator@D@2@@std@@VEncodedAuthentication@cpr@@@std@@@std@@@std@@SAPAU?$_Tree_node@U?$pair@$$CBV?$basic_string@DU?$char_traits@D@std@@V?$allocator@D@2@@std@@VEncodedAuthentication@cpr@@@std@@PAX@2@PAU32@@Z
	?_Min@?$_Tree_val@U?$_Tree_simple_types@U?$pair@$$CBW4AcceptEncodingMethods@cpr@@V?$basic_string@DU?$char_traits@D@std@@V?$allocator@D@2@@std@@@std@@@std@@@std@@SAPAU?$_Tree_node@U?$pair@$$CBW4AcceptEncodingMethods@cpr@@V?$basic_string@DU?$char_traits@D@std@@V?$allocator@D@2@@std@@@std@@PAX@2@PAU32@@Z
	?_Move_from@?$_State_manager@VResponse@cpr@@@std@@QAEXAAV12@@Z
	?_Mycnd@condition_variable@std@@AAEPAU_Cnd_internal_imp_t@@XZ
	?_Mymtx@_Mutex_base@std@@AAEPAU_Mtx_internal_imp_t@@XZ
	?_Myoff@?$deque@V?$function@$$A6AXXZ@std@@V?$allocator@V?$function@$$A6AXXZ@std@@@2@@std@@AAEAAIXZ
	?_Myoff@?$deque@V?$function@$$A6AXXZ@std@@V?$allocator@V?$function@$$A6AXXZ@std@@@2@@std@@ABEABIXZ
	?_Myoff@?$deque@V?$shared_ptr@VInterceptor@cpr@@@std@@V?$allocator@V?$shared_ptr@VInterceptor@cpr@@@std@@@2@@std@@AAEAAIXZ
	?_Myoff@?$deque@V?$shared_ptr@VInterceptor@cpr@@@std@@V?$allocator@V?$shared_ptr@VInterceptor@cpr@@@std@@@2@@std@@ABEABIXZ
	?_Myptr@?$_String_val@U?$_Simple_types@D@std@@@std@@QAEPADXZ
	?_Myptr@?$_String_val@U?$_Simple_types@D@std@@@std@@QBEPBDXZ
	?_Mysize@?$deque@V?$function@$$A6AXXZ@std@@V?$allocator@V?$function@$$A6AXXZ@std@@@2@@std@@AAEAAIXZ
	?_Mysize@?$deque@V?$function@$$A6AXXZ@std@@V?$allocator@V?$function@$$A6AXXZ@std@@@2@@std@@ABEABIXZ
	?_Mysize@?$deque@V?$shared_ptr@VInterceptor@cpr@@@std@@V?$allocator@V?$shared_ptr@VInterceptor@cpr@@@std@@@2@@std@@AAEAAIXZ
	?_Mysize@?$deque@V?$shared_ptr@VInterceptor@cpr@@@std@@V?$allocator@V?$shared_ptr@VInterceptor@cpr@@@std@@@2@@std@@ABEABIXZ
	?_Orphan_all@?$deque@V?$function@$$A6AXXZ@std@@V?$allocator@V?$function@$$A6AXXZ@std@@@2@@std@@AAEXXZ
	?_Orphan_all@?$deque@V?$shared_ptr@VInterceptor@cpr@@@std@@V?$allocator@V?$shared_ptr@VInterceptor@cpr@@@std@@@2@@std@@AAEXXZ
	?_Orphan_all@_Container_base12@std@@QAEXXZ
	?_Orphan_all_locked_v3@_Container_base12@std@@AAEXXZ
	?_Orphan_all_unlocked_v3@_Container_base12@std@@AAEXXZ
	?_Orphan_me_locked_v3@_Iterator_base12@std@@AAEXXZ
	?_Orphan_me_unlocked_v3@_Iterator_base12@std@@AAEXXZ
	?_Orphan_non_end@?$_List_val@U?$_List_simple_types@UThreadData@ThreadPool@cpr@@@std@@@std@@QAEXXZ
	?_Orphan_off@?$deque@V?$function@$$A6AXXZ@std@@V?$allocator@V?$function@$$A6AXXZ@std@@@2@@std@@ABEXI@Z
	?_Orphan_off@?$deque@V?$shared_ptr@VInterceptor@cpr@@@std@@V?$allocator@V?$shared_ptr@VInterceptor@cpr@@@std@@@2@@std@@ABEXI@Z
	?_Orphan_ptr2@?$_List_val@U?$_List_simple_types@UThreadData@ThreadPool@cpr@@@std@@@std@@QAEXPAU?$_List_node@UThreadData@ThreadPool@cpr@@PAX@2@@Z
	?_Orphan_ptr@?$_Tree_val@U?$_Tree_simple_types@U?$pair@$$CBV?$basic_string@DU?$char_traits@D@std@@V?$allocator@D@2@@std@@V12@@std@@@std@@@std@@QAEXQAU?$_Tree_node@U?$pair@$$CBV?$basic_string@DU?$char_traits@D@std@@V?$allocator@D@2@@std@@V12@@std@@PAX@2@@Z
	?_Orphan_ptr@?$_Tree_val@U?$_Tree_simple_types@U?$pair@$$CBV?$basic_string@DU?$char_traits@D@std@@V?$allocator@D@2@@std@@VEncodedAuthentication@cpr@@@std@@@std@@@std@@QAEXQAU?$_Tree_node@U?$pair@$$CBV?$basic_string@DU?$char_traits@D@std@@V?$allocator@D@2@@std@@VEncodedAuthentication@cpr@@@std@@PAX@2@@Z
	?_Orphan_range@?$vector@UPair@cpr@@V?$allocator@UPair@cpr@@@std@@@std@@ABEXPAUPair@cpr@@0@Z
	?_Orphan_range@?$vector@UParameter@cpr@@V?$allocator@UParameter@cpr@@@std@@@std@@ABEXPAUParameter@cpr@@0@Z
	?_Orphan_range@?$vector@Ucurl_forms@@V?$allocator@Ucurl_forms@@@std@@@std@@ABEXPAUcurl_forms@@0@Z
	?_Orphan_range@?$vector@V?$basic_string@DU?$char_traits@D@std@@V?$allocator@D@2@@std@@V?$allocator@V?$basic_string@DU?$char_traits@D@std@@V?$allocator@D@2@@std@@@2@@std@@ABEXPAV?$basic_string@DU?$char_traits@D@std@@V?$allocator@D@2@@2@0@Z
	?_Orphan_range@?$vector@VCertInfo@cpr@@V?$allocator@VCertInfo@cpr@@@std@@@std@@ABEXPAVCertInfo@cpr@@0@Z
	?_Orphan_range@?$vector@VCookie@cpr@@V?$allocator@VCookie@cpr@@@std@@@std@@ABEXPAVCookie@cpr@@0@Z
	?_Orphan_range_locked@?$vector@UPair@cpr@@V?$allocator@UPair@cpr@@@std@@@std@@ABEXPAUPair@cpr@@0@Z
	?_Orphan_range_locked@?$vector@UParameter@cpr@@V?$allocator@UParameter@cpr@@@std@@@std@@ABEXPAUParameter@cpr@@0@Z
	?_Orphan_range_locked@?$vector@Ucurl_forms@@V?$allocator@Ucurl_forms@@@std@@@std@@ABEXPAUcurl_forms@@0@Z
	?_Orphan_range_locked@?$vector@V?$basic_string@DU?$char_traits@D@std@@V?$allocator@D@2@@std@@V?$allocator@V?$basic_string@DU?$char_traits@D@std@@V?$allocator@D@2@@std@@@2@@std@@ABEXPAV?$basic_string@DU?$char_traits@D@std@@V?$allocator@D@2@@2@0@Z
	?_Orphan_range_locked@?$vector@VCertInfo@cpr@@V?$allocator@VCertInfo@cpr@@@std@@@std@@ABEXPAVCertInfo@cpr@@0@Z
	?_Orphan_range_locked@?$vector@VCookie@cpr@@V?$allocator@VCookie@cpr@@@std@@@std@@ABEXPAVCookie@cpr@@0@Z
	?_Orphan_range_unlocked@?$vector@UPair@cpr@@V?$allocator@UPair@cpr@@@std@@@std@@ABEXPAUPair@cpr@@0@Z
	?_Orphan_range_unlocked@?$vector@UParameter@cpr@@V?$allocator@UParameter@cpr@@@std@@@std@@ABEXPAUParameter@cpr@@0@Z
	?_Orphan_range_unlocked@?$vector@Ucurl_forms@@V?$allocator@Ucurl_forms@@@std@@@std@@ABEXPAUcurl_forms@@0@Z
	?_Orphan_range_unlocked@?$vector@V?$basic_string@DU?$char_traits@D@std@@V?$allocator@D@2@@std@@V?$allocator@V?$basic_string@DU?$char_traits@D@std@@V?$allocator@D@2@@std@@@2@@std@@ABEXPAV?$basic_string@DU?$char_traits@D@std@@V?$allocator@D@2@@2@0@Z
	?_Orphan_range_unlocked@?$vector@VCertInfo@cpr@@V?$allocator@VCertInfo@cpr@@@std@@@std@@ABEXPAVCertInfo@cpr@@0@Z
	?_Orphan_range_unlocked@?$vector@VCookie@cpr@@V?$allocator@VCookie@cpr@@@std@@@std@@ABEXPAVCookie@cpr@@0@Z
	?_Ptr@?$_State_manager@VResponse@cpr@@@std@@QBEPAV?$_Associated_state@VResponse@cpr@@@2@XZ
	?_Register@condition_variable@std@@QAEXAAV?$unique_lock@Vmutex@std@@@2@PAH@Z
	?_Release@?$_Alloc_construct_ptr@V?$allocator@U?$_Tree_node@U?$pair@$$CBV?$basic_string@DU?$char_traits@D@std@@V?$allocator@D@2@@std@@V12@@std@@PAX@std@@@std@@@std@@QAEPAU?$_Tree_node@U?$pair@$$CBV?$basic_string@DU?$char_traits@D@std@@V?$allocator@D@2@@std@@V12@@std@@PAX@2@XZ
	?_Release@?$_Alloc_construct_ptr@V?$allocator@U?$_Tree_node@U?$pair@$$CBV?$basic_string@DU?$char_traits@D@std@@V?$allocator@D@2@@std@@VEncodedAuthentication@cpr@@@std@@PAX@std@@@std@@@std@@QAEPAU?$_Tree_node@U?$pair@$$CBV?$basic_string@DU?$char_traits@D@std@@V?$allocator@D@2@@std@@VEncodedAuthentication@cpr@@@std@@PAX@2@XZ
	?_Release@?$_Alloc_construct_ptr@V?$allocator@U?$_Tree_node@U?$pair@$$CBW4AcceptEncodingMethods@cpr@@V?$basic_string@DU?$char_traits@D@std@@V?$allocator@D@2@@std@@@std@@PAX@std@@@std@@@std@@QAEPAU?$_Tree_node@U?$pair@$$CBW4AcceptEncodingMethods@cpr@@V?$basic_string@DU?$char_traits@D@std@@V?$allocator@D@2@@std@@@std@@PAX@2@XZ
	?_Release@?$_Associated_state@VResponse@cpr@@@std@@QAEXXZ
	?_Release@?$_Uninitialized_backout@PAPAV?$function@$$A6AXXZ@std@@@std@@QAEPAPAV?$function@$$A6AXXZ@2@XZ
	?_Release@?$_Uninitialized_backout@PAPAV?$shared_ptr@VInterceptor@cpr@@@std@@@std@@QAEPAPAV?$shared_ptr@VInterceptor@cpr@@@2@XZ
	?_Release@?$_Uninitialized_backout_al@V?$allocator@UPair@cpr@@@std@@@std@@QAEPAUPair@cpr@@XZ
	?_Release@?$_Uninitialized_backout_al@V?$allocator@UParameter@cpr@@@std@@@std@@QAEPAUParameter@cpr@@XZ
	?_Release@?$_Uninitialized_backout_al@V?$allocator@UPart@cpr@@@std@@@std@@QAEPAUPart@cpr@@XZ
	?_Release@?$_Uninitialized_backout_al@V?$allocator@Ucurl_forms@@@std@@@std@@QAEPAUcurl_forms@@XZ
	?_Release@?$_Uninitialized_backout_al@V?$allocator@V?$basic_string@DU?$char_traits@D@std@@V?$allocator@D@2@@std@@@std@@@std@@QAEPAV?$basic_string@DU?$char_traits@D@std@@V?$allocator@D@2@@2@XZ
	?_Release@?$_Uninitialized_backout_al@V?$allocator@VCertInfo@cpr@@@std@@@std@@QAEPAVCertInfo@cpr@@XZ
	?_Release@?$_Uninitialized_backout_al@V?$allocator@VCookie@cpr@@@std@@@std@@QAEPAVCookie@cpr@@XZ
	?_Release@_Basic_container_proxy_ptr12@std@@QAEXXZ
	?_Reset_copy@?$_Func_class@XW4InfoType@DebugCallback@cpr@@V?$basic_string@DU?$char_traits@D@std@@V?$allocator@D@2@@std@@H@std@@IAEXABV12@@Z
	?_Reset_copy@?$_Func_class@_NPADAAIH@std@@IAEXABV12@@Z
	?_Reset_copy@?$_Func_class@_NV?$basic_string@DU?$char_traits@D@std@@V?$allocator@D@2@@std@@H@std@@IAEXABV12@@Z
	?_Reset_copy@?$_Func_class@_N_J_J_J_JH@std@@IAEXABV12@@Z
	?_Reset_move@?$_Func_class@X$$V@std@@IAEX$$QAV12@@Z
	?_Reset_move@?$_Func_class@XW4InfoType@DebugCallback@cpr@@V?$basic_string@DU?$char_traits@D@std@@V?$allocator@D@2@@std@@H@std@@IAEX$$QAV12@@Z
	?_Reset_move@?$_Func_class@_NPADAAIH@std@@IAEX$$QAV12@@Z
	?_Reset_move@?$_Func_class@_NV?$basic_string@DU?$char_traits@D@std@@V?$allocator@D@2@@std@@H@std@@IAEX$$QAV12@@Z
	?_Reset_move@?$_Func_class@_N_J_J_J_JH@std@@IAEX$$QAV12@@Z
	?_Retain@?$_Associated_state@VResponse@cpr@@@std@@QAEXXZ
	?_Rrotate@?$_Tree_val@U?$_Tree_simple_types@U?$pair@$$CBV?$basic_string@DU?$char_traits@D@std@@V?$allocator@D@2@@std@@V12@@std@@@std@@@std@@QAEXPAU?$_Tree_node@U?$pair@$$CBV?$basic_string@DU?$char_traits@D@std@@V?$allocator@D@2@@std@@V12@@std@@PAX@2@@Z
	?_Rrotate@?$_Tree_val@U?$_Tree_simple_types@U?$pair@$$CBV?$basic_string@DU?$char_traits@D@std@@V?$allocator@D@2@@std@@VEncodedAuthentication@cpr@@@std@@@std@@@std@@QAEXPAU?$_Tree_node@U?$pair@$$CBV?$basic_string@DU?$char_traits@D@std@@V?$allocator@D@2@@std@@VEncodedAuthentication@cpr@@@std@@PAX@2@@Z
	?_Rrotate@?$_Tree_val@U?$_Tree_simple_types@U?$pair@$$CBW4AcceptEncodingMethods@cpr@@V?$basic_string@DU?$char_traits@D@std@@V?$allocator@D@2@@std@@@std@@@std@@@std@@QAEXPAU?$_Tree_node@U?$pair@$$CBW4AcceptEncodingMethods@cpr@@V?$basic_string@DU?$char_traits@D@std@@V?$allocator@D@2@@std@@@std@@PAX@2@@Z
	?_Run_deferred_function@?$_Associated_state@VResponse@cpr@@@std@@EAEXAAV?$unique_lock@Vmutex@std@@@2@@Z
	?_Seek_to@?$_String_const_iterator@V?$_String_val@U?$_Simple_types@D@std@@@std@@@std@@QAEXPBD@Z
	?_Set@?$_Func_class@VResponse@cpr@@$$V@std@@AAEXPAV?$_Func_base@VResponse@cpr@@$$V@2@@Z
	?_Set@?$_Func_class@X$$V@std@@AAEXPAV?$_Func_base@X$$V@2@@Z
	?_Set@?$_Func_class@XW4InfoType@DebugCallback@cpr@@V?$basic_string@DU?$char_traits@D@std@@V?$allocator@D@2@@std@@H@std@@AAEXPAV?$_Func_base@XW4InfoType@DebugCallback@cpr@@V?$basic_string@DU?$char_traits@D@std@@V?$allocator@D@2@@std@@H@2@@Z
	?_Set@?$_Func_class@_NPADAAIH@std@@AAEXPAV?$_Func_base@_NPADAAIH@2@@Z
	?_Set@?$_Func_class@_NV?$basic_string@DU?$char_traits@D@std@@V?$allocator@D@2@@std@@H@std@@AAEXPAV?$_Func_base@_NV?$basic_string@DU?$char_traits@D@std@@V?$allocator@D@2@@std@@H@2@@Z
	?_Set@?$_Func_class@_N_J_J_J_JH@std@@AAEXPAV?$_Func_base@_N_J_J_J_JH@2@@Z
	?_Set_exception@?$_Associated_state@VResponse@cpr@@@std@@QAEXVexception_ptr@2@_N@Z
	?_Set_exception_raw@?$_Associated_state@VResponse@cpr@@@std@@QAEXVexception_ptr@2@PAV?$unique_lock@Vmutex@std@@@2@_N@Z
	?_Set_value@?$_Associated_state@VResponse@cpr@@@std@@QAEX$$QAVResponse@cpr@@_N@Z
	?_Set_value_raw@?$_Associated_state@VResponse@cpr@@@std@@QAEX$$QAVResponse@cpr@@PAV?$unique_lock@Vmutex@std@@@2@_N@Z
	?_Swap@?$_Func_class@XW4InfoType@DebugCallback@cpr@@V?$basic_string@DU?$char_traits@D@std@@V?$allocator@D@2@@std@@H@std@@IAEXAAV12@@Z
	?_Swap@?$_Func_class@_NPADAAIH@std@@IAEXAAV12@@Z
	?_Swap@?$_Func_class@_NV?$basic_string@DU?$char_traits@D@std@@V?$allocator@D@2@@std@@H@std@@IAEXAAV12@@Z
	?_Swap@?$_Func_class@_N_J_J_J_JH@std@@IAEXAAV12@@Z
	?_Swap@?$_Ptr_base@UCurlHolder@cpr@@@std@@IAEXAAV12@@Z
	?_Swap@?$_Ptr_base@Vthread@std@@@std@@IAEXAAV12@@Z
	?_Swap_proxy_and_iterators@?$basic_string@DU?$char_traits@D@std@@V?$allocator@D@2@@std@@AAEXAAV12@@Z
	?_Swap_proxy_and_iterators@_Container_base12@std@@QAEXAAU12@@Z
	?_Swap_proxy_and_iterators_locked@_Container_base12@std@@AAEXAAU12@@Z
	?_Swap_proxy_and_iterators_unlocked@_Container_base12@std@@AAEXAAU12@@Z
	?_Swap_val_excluding_comp@?$_Tree@V?$_Tmap_traits@V?$basic_string@DU?$char_traits@D@std@@V?$allocator@D@2@@std@@V12@U?$less@V?$basic_string@DU?$char_traits@D@std@@V?$allocator@D@2@@std@@@2@V?$allocator@U?$pair@$$CBV?$basic_string@DU?$char_traits@D@std@@V?$allocator@D@2@@std@@V12@@std@@@2@$0A@@std@@@std@@AAEXAAV12@@Z
	?_Swap_val_excluding_comp@?$_Tree@V?$_Tmap_traits@V?$basic_string@DU?$char_traits@D@std@@V?$allocator@D@2@@std@@V12@UCaseInsensitiveCompare@cpr@@V?$allocator@U?$pair@$$CBV?$basic_string@DU?$char_traits@D@std@@V?$allocator@D@2@@std@@V12@@std@@@2@$0A@@std@@@std@@AAEXAAV12@@Z
	?_Swap_val_excluding_comp@?$_Tree@V?$_Tmap_traits@V?$basic_string@DU?$char_traits@D@std@@V?$allocator@D@2@@std@@VEncodedAuthentication@cpr@@U?$less@V?$basic_string@DU?$char_traits@D@std@@V?$allocator@D@2@@std@@@2@V?$allocator@U?$pair@$$CBV?$basic_string@DU?$char_traits@D@std@@V?$allocator@D@2@@std@@VEncodedAuthentication@cpr@@@std@@@2@$0A@@std@@@std@@AAEXAAV12@@Z
	?_Take_contents@?$_Vector_val@U?$_Simple_types@UParameter@cpr@@@std@@@std@@QAEXAAV12@@Z
	?_Take_contents@?$_Vector_val@U?$_Simple_types@V?$basic_string@DU?$char_traits@D@std@@V?$allocator@D@2@@std@@@std@@@std@@QAEXAAV12@@Z
	?_Take_contents@?$_Vector_val@U?$_Simple_types@VCookie@cpr@@@std@@@std@@QAEXAAV12@@Z
	?_Take_contents@?$basic_string@DU?$char_traits@D@std@@V?$allocator@D@2@@std@@AAEXAAV12@@Z
	?_Throw_bad_array_new_length@std@@YAXXZ
	?_Throw_bad_cast@std@@YAXXZ
	?_Throw_bad_weak_ptr@std@@YAXXZ
	?_Throw_future_error2@std@@YAXW4future_errc@1@@Z
	?_Throw_tree_length_error@std@@YAXXZ
	?_Tidy@?$_Func_class@VResponse@cpr@@$$V@std@@IAEXXZ
	?_Tidy@?$_Func_class@X$$V@std@@IAEXXZ
	?_Tidy@?$_Func_class@XW4InfoType@DebugCallback@cpr@@V?$basic_string@DU?$char_traits@D@std@@V?$allocator@D@2@@std@@H@std@@IAEXXZ
	?_Tidy@?$_Func_class@_NPADAAIH@std@@IAEXXZ
	?_Tidy@?$_Func_class@_NV?$basic_string@DU?$char_traits@D@std@@V?$allocator@D@2@@std@@H@std@@IAEXXZ
	?_Tidy@?$_Func_class@_N_J_J_J_JH@std@@IAEXXZ
	?_Tidy@?$basic_stringbuf@DU?$char_traits@D@std@@V?$allocator@D@2@@std@@IAEXXZ
	?_Tidy@?$deque@V?$function@$$A6AXXZ@std@@V?$allocator@V?$function@$$A6AXXZ@std@@@2@@std@@AAEXXZ
	?_Tidy@?$deque@V?$shared_ptr@VInterceptor@cpr@@@std@@V?$allocator@V?$shared_ptr@VInterceptor@cpr@@@std@@@2@@std@@AAEXXZ
	?_Tidy@?$list@UThreadData@ThreadPool@cpr@@V?$allocator@UThreadData@ThreadPool@cpr@@@std@@@std@@AAEXXZ
	?_Tidy@?$vector@UPair@cpr@@V?$allocator@UPair@cpr@@@std@@@std@@AAEXXZ
	?_Tidy@?$vector@UParameter@cpr@@V?$allocator@UParameter@cpr@@@std@@@std@@AAEXXZ
	?_Tidy@?$vector@UPart@cpr@@V?$allocator@UPart@cpr@@@std@@@std@@AAEXXZ
	?_Tidy@?$vector@Ucurl_forms@@V?$allocator@Ucurl_forms@@@std@@@std@@AAEXXZ
	?_Tidy@?$vector@V?$basic_string@DU?$char_traits@D@std@@V?$allocator@D@2@@std@@V?$allocator@V?$basic_string@DU?$char_traits@D@std@@V?$allocator@D@2@@std@@@2@@std@@AAEXXZ
	?_Tidy@?$vector@VCertInfo@cpr@@V?$allocator@VCertInfo@cpr@@@std@@@std@@AAEXXZ
	?_Tidy@?$vector@VCookie@cpr@@V?$allocator@VCookie@cpr@@@std@@@std@@AAEXXZ
	?_Tidy_deallocate@?$basic_string@DU?$char_traits@D@std@@V?$allocator@D@2@@std@@AAEXXZ
	?_Tidy_init@?$basic_string@DU?$char_traits@D@std@@V?$allocator@D@2@@std@@AAEXXZ
	?_Transfer_before@?$_List_node_emplace_op2@V?$allocator@U?$_List_node@UThreadData@ThreadPool@cpr@@PAX@std@@@std@@@std@@QAEPAU?$_List_node@UThreadData@ThreadPool@cpr@@PAX@2@QAU32@@Z
	?_Unchecked_begin@?$_Tree@V?$_Tmap_traits@V?$basic_string@DU?$char_traits@D@std@@V?$allocator@D@2@@std@@V12@UCaseInsensitiveCompare@cpr@@V?$allocator@U?$pair@$$CBV?$basic_string@DU?$char_traits@D@std@@V?$allocator@D@2@@std@@V12@@std@@@2@$0A@@std@@@std@@QAE?AV?$_Tree_unchecked_iterator@V?$_Tree_val@U?$_Tree_simple_types@U?$pair@$$CBV?$basic_string@DU?$char_traits@D@std@@V?$allocator@D@2@@std@@V12@@std@@@std@@@std@@@2@XZ
	?_Unchecked_begin@?$_Tree@V?$_Tmap_traits@V?$basic_string@DU?$char_traits@D@std@@V?$allocator@D@2@@std@@V12@UCaseInsensitiveCompare@cpr@@V?$allocator@U?$pair@$$CBV?$basic_string@DU?$char_traits@D@std@@V?$allocator@D@2@@std@@V12@@std@@@2@$0A@@std@@@std@@QBE?AV?$_Tree_unchecked_const_iterator@V?$_Tree_val@U?$_Tree_simple_types@U?$pair@$$CBV?$basic_string@DU?$char_traits@D@std@@V?$allocator@D@2@@std@@V12@@std@@@std@@@std@@U_Iterator_base0@2@@2@XZ
	?_Unchecked_begin@?$deque@V?$function@$$A6AXXZ@std@@V?$allocator@V?$function@$$A6AXXZ@std@@@2@@std@@QAE?AV?$_Deque_unchecked_iterator@V?$_Deque_val@U?$_Deque_simple_types@V?$function@$$A6AXXZ@std@@@std@@@std@@@2@XZ
	?_Unchecked_begin@?$deque@V?$shared_ptr@VInterceptor@cpr@@@std@@V?$allocator@V?$shared_ptr@VInterceptor@cpr@@@std@@@2@@std@@QAE?AV?$_Deque_unchecked_iterator@V?$_Deque_val@U?$_Deque_simple_types@V?$shared_ptr@VInterceptor@cpr@@@std@@@std@@@std@@@2@XZ
	?_Unchecked_begin@?$list@UThreadData@ThreadPool@cpr@@V?$allocator@UThreadData@ThreadPool@cpr@@@std@@@std@@QAE?AV?$_List_unchecked_iterator@V?$_List_val@U?$_List_simple_types@UThreadData@ThreadPool@cpr@@@std@@@std@@@2@XZ
	?_Unchecked_begin@?$vector@UPair@cpr@@V?$allocator@UPair@cpr@@@std@@@std@@QBEPBUPair@cpr@@XZ
	?_Unchecked_begin@?$vector@UParameter@cpr@@V?$allocator@UParameter@cpr@@@std@@@std@@QBEPBUParameter@cpr@@XZ
	?_Unchecked_begin@?$vector@UPart@cpr@@V?$allocator@UPart@cpr@@@std@@@std@@QAEPAUPart@cpr@@XZ
	?_Unchecked_begin@?$vector@UPart@cpr@@V?$allocator@UPart@cpr@@@std@@@std@@QBEPBUPart@cpr@@XZ
	?_Unchecked_begin@?$vector@V?$basic_string@DU?$char_traits@D@std@@V?$allocator@D@2@@std@@V?$allocator@V?$basic_string@DU?$char_traits@D@std@@V?$allocator@D@2@@std@@@2@@std@@QAEPAV?$basic_string@DU?$char_traits@D@std@@V?$allocator@D@2@@2@XZ
	?_Unchecked_begin@?$vector@VCookie@cpr@@V?$allocator@VCookie@cpr@@@std@@@std@@QBEPBVCookie@cpr@@XZ
	?_Unchecked_begin@?$vector@VRange@cpr@@V?$allocator@VRange@cpr@@@std@@@std@@QBEPBVRange@cpr@@XZ
	?_Unchecked_end@?$_Tree@V?$_Tmap_traits@V?$basic_string@DU?$char_traits@D@std@@V?$allocator@D@2@@std@@V12@UCaseInsensitiveCompare@cpr@@V?$allocator@U?$pair@$$CBV?$basic_string@DU?$char_traits@D@std@@V?$allocator@D@2@@std@@V12@@std@@@2@$0A@@std@@@std@@QBE?AU_Default_sentinel@2@XZ
	?_Unchecked_end@?$list@UThreadData@ThreadPool@cpr@@V?$allocator@UThreadData@ThreadPool@cpr@@@std@@@std@@QAE?AV?$_List_unchecked_iterator@V?$_List_val@U?$_List_simple_types@UThreadData@ThreadPool@cpr@@@std@@@std@@@2@XZ
	?_Unchecked_end@?$vector@UPair@cpr@@V?$allocator@UPair@cpr@@@std@@@std@@QBEPBUPair@cpr@@XZ
	?_Unchecked_end@?$vector@UParameter@cpr@@V?$allocator@UParameter@cpr@@@std@@@std@@QBEPBUParameter@cpr@@XZ
	?_Unchecked_end@?$vector@UPart@cpr@@V?$allocator@UPart@cpr@@@std@@@std@@QAEPAUPart@cpr@@XZ
	?_Unchecked_end@?$vector@UPart@cpr@@V?$allocator@UPart@cpr@@@std@@@std@@QBEPBUPart@cpr@@XZ
	?_Unchecked_end@?$vector@V?$basic_string@DU?$char_traits@D@std@@V?$allocator@D@2@@std@@V?$allocator@V?$basic_string@DU?$char_traits@D@std@@V?$allocator@D@2@@std@@@2@@std@@QAEPAV?$basic_string@DU?$char_traits@D@std@@V?$allocator@D@2@@2@XZ
	?_Unchecked_end@?$vector@VCookie@cpr@@V?$allocator@VCookie@cpr@@@std@@@std@@QBEPBVCookie@cpr@@XZ
	?_Unchecked_end@?$vector@VRange@cpr@@V?$allocator@VRange@cpr@@@std@@@std@@QBEPBVRange@cpr@@XZ
	?_Unlinknode@?$_List_val@U?$_List_simple_types@UThreadData@ThreadPool@cpr@@@std@@@std@@QAEPAU?$_List_node@UThreadData@ThreadPool@cpr@@PAX@2@PAU32@@Z
	?_Unregister@condition_variable@std@@QAEXAAVmutex@2@@Z
	?_Unwrapped@?$_String_const_iterator@V?$_String_val@U?$_Simple_types@D@std@@@std@@@std@@QBEPBDXZ
	?_Unwrapped@?$_String_iterator@V?$_String_val@U?$_Simple_types@D@std@@@std@@@std@@QBEPADXZ
	?_Unwrapped@?$_Vector_const_iterator@V?$_Vector_val@U?$_Simple_types@V?$basic_string@DU?$char_traits@D@std@@V?$allocator@D@2@@std@@@std@@@std@@@std@@QBEPBV?$basic_string@DU?$char_traits@D@std@@V?$allocator@D@2@@2@XZ
	?_Verify_offset@?$_String_const_iterator@V?$_String_val@U?$_Simple_types@D@std@@@std@@@std@@QBEXH@Z
	?_Verify_offset@?$_Vector_const_iterator@V?$_Vector_val@U?$_Simple_types@V?$basic_string@DU?$char_traits@D@std@@V?$allocator@D@2@@std@@@std@@@std@@@std@@QBEXH@Z
	?_Verify_range@std@@YAXABV?$_String_const_iterator@V?$_String_val@U?$_Simple_types@D@std@@@std@@@1@0@Z
	?_Verify_range@std@@YAXABV?$_Vector_const_iterator@V?$_Vector_val@U?$_Simple_types@V?$basic_string@DU?$char_traits@D@std@@V?$allocator@D@2@@std@@@std@@@std@@@1@0@Z
	?_Wait@?$_Associated_state@VResponse@cpr@@@std@@UAEXXZ
	?_Xlen@?$deque@V?$function@$$A6AXXZ@std@@V?$allocator@V?$function@$$A6AXXZ@std@@@2@@std@@ABEXXZ
	?_Xlen@?$deque@V?$shared_ptr@VInterceptor@cpr@@@std@@V?$allocator@V?$shared_ptr@VInterceptor@cpr@@@std@@@2@@std@@ABEXXZ
	?_Xlen_string@std@@YAXXZ
	?_Xlength@?$vector@UPair@cpr@@V?$allocator@UPair@cpr@@@std@@@std@@CAXXZ
	?_Xlength@?$vector@UParameter@cpr@@V?$allocator@UParameter@cpr@@@std@@@std@@CAXXZ
	?_Xlength@?$vector@UPart@cpr@@V?$allocator@UPart@cpr@@@std@@@std@@CAXXZ
	?_Xlength@?$vector@Ucurl_forms@@V?$allocator@Ucurl_forms@@@std@@@std@@CAXXZ
	?_Xlength@?$vector@V?$basic_string@DU?$char_traits@D@std@@V?$allocator@D@2@@std@@V?$allocator@V?$basic_string@DU?$char_traits@D@std@@V?$allocator@D@2@@std@@@2@@std@@CAXXZ
	?_Xlength@?$vector@VCertInfo@cpr@@V?$allocator@VCertInfo@cpr@@@std@@@std@@CAXXZ
	?_Xlength@?$vector@VCookie@cpr@@V?$allocator@VCookie@cpr@@@std@@@std@@CAXXZ
	?_Xran@?$_String_val@U?$_Simple_types@D@std@@@std@@SAXXZ
	?_Xrange@?$vector@V?$basic_string@DU?$char_traits@D@std@@V?$allocator@D@2@@std@@V?$allocator@V?$basic_string@DU?$char_traits@D@std@@V?$allocator@D@2@@std@@@2@@std@@CAXXZ
	?__empty_global_delete@@YAXPAX@Z
	?__empty_global_delete@@YAXPAXI@Z
	?allocate@?$allocator@D@std@@QAEPADI@Z
	?allocate@?$allocator@PAV?$function@$$A6AXXZ@std@@@std@@QAEPAPAV?$function@$$A6AXXZ@2@I@Z
	?allocate@?$allocator@PAV?$shared_ptr@VInterceptor@cpr@@@std@@@std@@QAEPAPAV?$shared_ptr@VInterceptor@cpr@@@2@I@Z
	?allocate@?$allocator@U?$_List_node@UThreadData@ThreadPool@cpr@@PAX@std@@@std@@QAEPAU?$_List_node@UThreadData@ThreadPool@cpr@@PAX@2@I@Z
	?allocate@?$allocator@U?$_Tree_node@U?$pair@$$CBV?$basic_string@DU?$char_traits@D@std@@V?$allocator@D@2@@std@@V12@@std@@PAX@std@@@std@@QAEPAU?$_Tree_node@U?$pair@$$CBV?$basic_string@DU?$char_traits@D@std@@V?$allocator@D@2@@std@@V12@@std@@PAX@2@I@Z
	?allocate@?$allocator@U?$_Tree_node@U?$pair@$$CBV?$basic_string@DU?$char_traits@D@std@@V?$allocator@D@2@@std@@VEncodedAuthentication@cpr@@@std@@PAX@std@@@std@@QAEPAU?$_Tree_node@U?$pair@$$CBV?$basic_string@DU?$char_traits@D@std@@V?$allocator@D@2@@std@@VEncodedAuthentication@cpr@@@std@@PAX@2@I@Z
	?allocate@?$allocator@U?$_Tree_node@U?$pair@$$CBW4AcceptEncodingMethods@cpr@@V?$basic_string@DU?$char_traits@D@std@@V?$allocator@D@2@@std@@@std@@PAX@std@@@std@@QAEPAU?$_Tree_node@U?$pair@$$CBW4AcceptEncodingMethods@cpr@@V?$basic_string@DU?$char_traits@D@std@@V?$allocator@D@2@@std@@@std@@PAX@2@I@Z
	?allocate@?$allocator@UPair@cpr@@@std@@QAEPAUPair@cpr@@I@Z
	?allocate@?$allocator@UParameter@cpr@@@std@@QAEPAUParameter@cpr@@I@Z
	?allocate@?$allocator@UPart@cpr@@@std@@QAEPAUPart@cpr@@I@Z
	?allocate@?$allocator@U_Container_proxy@std@@@std@@QAEPAU_Container_proxy@2@I@Z
	?allocate@?$allocator@Ucurl_forms@@@std@@QAEPAUcurl_forms@@I@Z
	?allocate@?$allocator@V?$basic_string@DU?$char_traits@D@std@@V?$allocator@D@2@@std@@@std@@QAEPAV?$basic_string@DU?$char_traits@D@std@@V?$allocator@D@2@@2@I@Z
	?allocate@?$allocator@V?$function@$$A6AXXZ@std@@@std@@QAEPAV?$function@$$A6AXXZ@2@I@Z
	?allocate@?$allocator@V?$shared_ptr@VInterceptor@cpr@@@std@@@std@@QAEPAV?$shared_ptr@VInterceptor@cpr@@@2@I@Z
	?allocate@?$allocator@VCertInfo@cpr@@@std@@QAEPAVCertInfo@cpr@@I@Z
	?allocate@?$allocator@VCookie@cpr@@@std@@QAEPAVCookie@cpr@@I@Z
	?any@cpr@@YA_NW4PostRedirectFlags@1@@Z
	?append@?$basic_string@DU?$char_traits@D@std@@V?$allocator@D@2@@std@@QAEAAV12@ABV12@@Z
	?append@?$basic_string@DU?$char_traits@D@std@@V?$allocator@D@2@@std@@QAEAAV12@ID@Z
	?append@?$basic_string@DU?$char_traits@D@std@@V?$allocator@D@2@@std@@QAEAAV12@QBD@Z
	?append@?$basic_string@DU?$char_traits@D@std@@V?$allocator@D@2@@std@@QAEAAV12@QBDI@Z
	?assign@?$_Narrow_char_traits@DH@std@@SAPADQADID@Z
	?assign@?$_Narrow_char_traits@DH@std@@SAXAADABD@Z
	?assign@?$basic_string@DU?$char_traits@D@std@@V?$allocator@D@2@@std@@QAEAAV12@QBDI@Z
	?at@?$map@W4AcceptEncodingMethods@cpr@@V?$basic_string@DU?$char_traits@D@std@@V?$allocator@D@2@@std@@U?$less@W4AcceptEncodingMethods@cpr@@@4@V?$allocator@U?$pair@$$CBW4AcceptEncodingMethods@cpr@@V?$basic_string@DU?$char_traits@D@std@@V?$allocator@D@2@@std@@@std@@@4@@std@@QBEABV?$basic_string@DU?$char_traits@D@std@@V?$allocator@D@2@@2@ABW4AcceptEncodingMethods@cpr@@@Z
	?at@?$vector@V?$basic_string@DU?$char_traits@D@std@@V?$allocator@D@2@@std@@V?$allocator@V?$basic_string@DU?$char_traits@D@std@@V?$allocator@D@2@@std@@@2@@std@@QAEAAV?$basic_string@DU?$char_traits@D@std@@V?$allocator@D@2@@2@I@Z
	?back@?$basic_string@DU?$char_traits@D@std@@V?$allocator@D@2@@std@@QBEABDXZ
	?begin@?$basic_string@DU?$char_traits@D@std@@V?$allocator@D@2@@std@@QAE?AV?$_String_iterator@V?$_String_val@U?$_Simple_types@D@std@@@std@@@2@XZ
	?begin@?$basic_string@DU?$char_traits@D@std@@V?$allocator@D@2@@std@@QBE?AV?$_String_const_iterator@V?$_String_val@U?$_Simple_types@D@std@@@std@@@2@XZ
	?begin@?$initializer_list@U?$pair@$$CBV?$basic_string@DU?$char_traits@D@std@@V?$allocator@D@2@@std@@V12@@std@@@std@@QBEPBU?$pair@$$CBV?$basic_string@DU?$char_traits@D@std@@V?$allocator@D@2@@std@@V12@@2@XZ
	?begin@?$initializer_list@U?$pair@$$CBW4AcceptEncodingMethods@cpr@@V?$basic_string@DU?$char_traits@D@std@@V?$allocator@D@2@@std@@@std@@@std@@QBEPBU?$pair@$$CBW4AcceptEncodingMethods@cpr@@V?$basic_string@DU?$char_traits@D@std@@V?$allocator@D@2@@std@@@2@XZ
	?begin@?$initializer_list@UPair@cpr@@@std@@QBEPBUPair@cpr@@XZ
	?begin@?$initializer_list@UParameter@cpr@@@std@@QBEPBUParameter@cpr@@XZ
	?begin@?$initializer_list@UPart@cpr@@@std@@QBEPBUPart@cpr@@XZ
	?begin@?$initializer_list@V?$basic_string@DU?$char_traits@D@std@@V?$allocator@D@2@@std@@@std@@QBEPBV?$basic_string@DU?$char_traits@D@std@@V?$allocator@D@2@@2@XZ
	?begin@?$initializer_list@W4AcceptEncodingMethods@cpr@@@std@@QBEPBW4AcceptEncodingMethods@cpr@@XZ
	?begin@?$list@UThreadData@ThreadPool@cpr@@V?$allocator@UThreadData@ThreadPool@cpr@@@std@@@std@@QAE?AV?$_List_iterator@V?$_List_val@U?$_List_simple_types@UThreadData@ThreadPool@cpr@@@std@@@std@@@2@XZ
	?begin@?$vector@V?$basic_string@DU?$char_traits@D@std@@V?$allocator@D@2@@std@@V?$allocator@V?$basic_string@DU?$char_traits@D@std@@V?$allocator@D@2@@std@@@2@@std@@QAE?AV?$_Vector_iterator@V?$_Vector_val@U?$_Simple_types@V?$basic_string@DU?$char_traits@D@std@@V?$allocator@D@2@@std@@@std@@@std@@@2@XZ
	?begin@?$vector@V?$basic_string@DU?$char_traits@D@std@@V?$allocator@D@2@@std@@V?$allocator@V?$basic_string@DU?$char_traits@D@std@@V?$allocator@D@2@@std@@@2@@std@@QBE?AV?$_Vector_const_iterator@V?$_Vector_val@U?$_Simple_types@V?$basic_string@DU?$char_traits@D@std@@V?$allocator@D@2@@std@@@std@@@std@@@2@XZ
	?begin@?$vector@VCookie@cpr@@V?$allocator@VCookie@cpr@@@std@@@std@@QAE?AV?$_Vector_iterator@V?$_Vector_val@U?$_Simple_types@VCookie@cpr@@@std@@@std@@@2@XZ
	?begin@?$vector@VCookie@cpr@@V?$allocator@VCookie@cpr@@@std@@@std@@QBE?AV?$_Vector_const_iterator@V?$_Vector_val@U?$_Simple_types@VCookie@cpr@@@std@@@std@@@2@XZ
	?begin@CertInfo@cpr@@QAE?AV?$_Vector_iterator@V?$_Vector_val@U?$_Simple_types@V?$basic_string@DU?$char_traits@D@std@@V?$allocator@D@2@@std@@@std@@@std@@@std@@XZ
	?begin@CertInfo@cpr@@QBE?AV?$_Vector_const_iterator@V?$_Vector_val@U?$_Simple_types@V?$basic_string@DU?$char_traits@D@std@@V?$allocator@D@2@@std@@@std@@@std@@@std@@XZ
	?begin@Cookies@cpr@@QAE?AV?$_Vector_iterator@V?$_Vector_val@U?$_Simple_types@VCookie@cpr@@@std@@@std@@@std@@XZ
	?begin@Cookies@cpr@@QBE?AV?$_Vector_const_iterator@V?$_Vector_val@U?$_Simple_types@VCookie@cpr@@@std@@@std@@@std@@XZ
	?c_str@?$StringHolder@VBody@cpr@@@cpr@@QBEPBDXZ
	?c_str@?$StringHolder@VInterface@cpr@@@cpr@@QBEPBDXZ
	?c_str@?$StringHolder@VUrl@cpr@@@cpr@@QBEPBDXZ
	?c_str@?$StringHolder@VUserAgent@cpr@@@cpr@@QBEPBDXZ
	?c_str@?$basic_string@DU?$char_traits@D@std@@V?$allocator@D@2@@std@@QBEPBDXZ
	?capacity@?$vector@UPair@cpr@@V?$allocator@UPair@cpr@@@std@@@std@@QBEIXZ
	?capacity@?$vector@UParameter@cpr@@V?$allocator@UParameter@cpr@@@std@@@std@@QBEIXZ
	?capacity@?$vector@Ucurl_forms@@V?$allocator@Ucurl_forms@@@std@@@std@@QBEIXZ
	?capacity@?$vector@V?$basic_string@DU?$char_traits@D@std@@V?$allocator@D@2@@std@@V?$allocator@V?$basic_string@DU?$char_traits@D@std@@V?$allocator@D@2@@std@@@2@@std@@QBEIXZ
	?capacity@?$vector@VCertInfo@cpr@@V?$allocator@VCertInfo@cpr@@@std@@@std@@QBEIXZ
	?capacity@?$vector@VCookie@cpr@@V?$allocator@VCookie@cpr@@@std@@@std@@QBEIXZ
	?category@error_code@std@@QBEABVerror_category@2@XZ
	?category@error_condition@std@@QBEABVerror_category@2@XZ
	?cbegin@?$vector@V?$basic_string@DU?$char_traits@D@std@@V?$allocator@D@2@@std@@V?$allocator@V?$basic_string@DU?$char_traits@D@std@@V?$allocator@D@2@@std@@@2@@std@@QBE?AV?$_Vector_const_iterator@V?$_Vector_val@U?$_Simple_types@V?$basic_string@DU?$char_traits@D@std@@V?$allocator@D@2@@std@@@std@@@std@@@2@XZ
	?cbegin@?$vector@VCookie@cpr@@V?$allocator@VCookie@cpr@@@std@@@std@@QBE?AV?$_Vector_const_iterator@V?$_Vector_val@U?$_Simple_types@VCookie@cpr@@@std@@@std@@@2@XZ
	?cbegin@CertInfo@cpr@@QBE?AV?$_Vector_const_iterator@V?$_Vector_val@U?$_Simple_types@V?$basic_string@DU?$char_traits@D@std@@V?$allocator@D@2@@std@@@std@@@std@@@std@@XZ
	?cbegin@Cookies@cpr@@QBE?AV?$_Vector_const_iterator@V?$_Vector_val@U?$_Simple_types@VCookie@cpr@@@std@@@std@@@std@@XZ
	?cend@?$vector@V?$basic_string@DU?$char_traits@D@std@@V?$allocator@D@2@@std@@V?$allocator@V?$basic_string@DU?$char_traits@D@std@@V?$allocator@D@2@@std@@@2@@std@@QBE?AV?$_Vector_const_iterator@V?$_Vector_val@U?$_Simple_types@V?$basic_string@DU?$char_traits@D@std@@V?$allocator@D@2@@std@@@std@@@std@@@2@XZ
	?cend@?$vector@VCookie@cpr@@V?$allocator@VCookie@cpr@@@std@@@std@@QBE?AV?$_Vector_const_iterator@V?$_Vector_val@U?$_Simple_types@VCookie@cpr@@@std@@@std@@@2@XZ
	?cend@CertInfo@cpr@@QBE?AV?$_Vector_const_iterator@V?$_Vector_val@U?$_Simple_types@V?$basic_string@DU?$char_traits@D@std@@V?$allocator@D@2@@std@@@std@@@std@@@std@@XZ
	?cend@Cookies@cpr@@QBE?AV?$_Vector_const_iterator@V?$_Vector_val@U?$_Simple_types@VCookie@cpr@@@std@@@std@@@std@@XZ
	?clear@?$_Tree@V?$_Tmap_traits@V?$basic_string@DU?$char_traits@D@std@@V?$allocator@D@2@@std@@V12@U?$less@V?$basic_string@DU?$char_traits@D@std@@V?$allocator@D@2@@std@@@2@V?$allocator@U?$pair@$$CBV?$basic_string@DU?$char_traits@D@std@@V?$allocator@D@2@@std@@V12@@std@@@2@$0A@@std@@@std@@QAEXXZ
	?clear@?$_Tree@V?$_Tmap_traits@V?$basic_string@DU?$char_traits@D@std@@V?$allocator@D@2@@std@@V12@UCaseInsensitiveCompare@cpr@@V?$allocator@U?$pair@$$CBV?$basic_string@DU?$char_traits@D@std@@V?$allocator@D@2@@std@@V12@@std@@@2@$0A@@std@@@std@@QAEXXZ
	?clear@?$_Tree@V?$_Tmap_traits@V?$basic_string@DU?$char_traits@D@std@@V?$allocator@D@2@@std@@VEncodedAuthentication@cpr@@U?$less@V?$basic_string@DU?$char_traits@D@std@@V?$allocator@D@2@@std@@@2@V?$allocator@U?$pair@$$CBV?$basic_string@DU?$char_traits@D@std@@V?$allocator@D@2@@std@@VEncodedAuthentication@cpr@@@std@@@2@$0A@@std@@@std@@QAEXXZ
	?clear@?$basic_string@DU?$char_traits@D@std@@V?$allocator@D@2@@std@@QAEXXZ
	?clear@?$list@UThreadData@ThreadPool@cpr@@V?$allocator@UThreadData@ThreadPool@cpr@@@std@@@std@@QAEXXZ
	?clear@?$vector@V?$basic_string@DU?$char_traits@D@std@@V?$allocator@D@2@@std@@V?$allocator@V?$basic_string@DU?$char_traits@D@std@@V?$allocator@D@2@@std@@@2@@std@@QAEXXZ
	?compare@?$_Narrow_char_traits@DH@std@@SAHQBD0I@Z
	?compare@?$basic_string@DU?$char_traits@D@std@@V?$allocator@D@2@@std@@QBEHABV12@@Z
	?copy@?$_Char_traits@DH@std@@SAPADQADQBDI@Z
	?count@?$_Tree@V?$_Tmap_traits@V?$basic_string@DU?$char_traits@D@std@@V?$allocator@D@2@@std@@V12@U?$less@V?$basic_string@DU?$char_traits@D@std@@V?$allocator@D@2@@std@@@2@V?$allocator@U?$pair@$$CBV?$basic_string@DU?$char_traits@D@std@@V?$allocator@D@2@@std@@V12@@std@@@2@$0A@@std@@@std@@QBEIABV?$basic_string@DU?$char_traits@D@std@@V?$allocator@D@2@@2@@Z
	?count@?$_Tree@V?$_Tmap_traits@V?$basic_string@DU?$char_traits@D@std@@V?$allocator@D@2@@std@@VEncodedAuthentication@cpr@@U?$less@V?$basic_string@DU?$char_traits@D@std@@V?$allocator@D@2@@std@@@2@V?$allocator@U?$pair@$$CBV?$basic_string@DU?$char_traits@D@std@@V?$allocator@D@2@@std@@VEncodedAuthentication@cpr@@@std@@@2@$0A@@std@@@std@@QBEIABV?$basic_string@DU?$char_traits@D@std@@V?$allocator@D@2@@2@@Z
	?count@?$duration@NU?$ratio@$00$00@std@@@chrono@std@@QBENXZ
	?count@?$duration@NU?$ratio@$00$0DLJKMKAA@@std@@@chrono@std@@QBENXZ
	?count@?$duration@_JU?$ratio@$00$00@std@@@chrono@std@@QBE_JXZ
	?count@?$duration@_JU?$ratio@$00$0DLJKMKAA@@std@@@chrono@std@@QBE_JXZ
	?count@?$duration@_JU?$ratio@$00$0DOI@@std@@@chrono@std@@QBE_JXZ
	?count@?$duration@_JU?$ratio@$00$0JIJGIA@@std@@@chrono@std@@QBE_JXZ
	?curl_easy_init_mutex_@CurlHolder@cpr@@CAAAVmutex@std@@XZ
	?current_exception@std@@YA?AVexception_ptr@1@XZ
	?data@?$array@D$0BAA@@std@@QAEPADXZ
	?data@?$basic_string@DU?$char_traits@D@std@@V?$allocator@D@2@@std@@QBEPBDXZ
	?data@?$vector@Ucurl_forms@@V?$allocator@Ucurl_forms@@@std@@@std@@QAEPAUcurl_forms@@XZ
	?deallocate@?$_Default_allocator_traits@V?$allocator@U?$_List_node@UThreadData@ThreadPool@cpr@@PAX@std@@@std@@@std@@SAXAAV?$allocator@U?$_List_node@UThreadData@ThreadPool@cpr@@PAX@std@@@2@QAU?$_List_node@UThreadData@ThreadPool@cpr@@PAX@2@I@Z
	?deallocate@?$_Default_allocator_traits@V?$allocator@U?$_Tree_node@U?$pair@$$CBV?$basic_string@DU?$char_traits@D@std@@V?$allocator@D@2@@std@@V12@@std@@PAX@std@@@std@@@std@@SAXAAV?$allocator@U?$_Tree_node@U?$pair@$$CBV?$basic_string@DU?$char_traits@D@std@@V?$allocator@D@2@@std@@V12@@std@@PAX@std@@@2@QAU?$_Tree_node@U?$pair@$$CBV?$basic_string@DU?$char_traits@D@std@@V?$allocator@D@2@@std@@V12@@std@@PAX@2@I@Z
	?deallocate@?$_Default_allocator_traits@V?$allocator@U?$_Tree_node@U?$pair@$$CBV?$basic_string@DU?$char_traits@D@std@@V?$allocator@D@2@@std@@VEncodedAuthentication@cpr@@@std@@PAX@std@@@std@@@std@@SAXAAV?$allocator@U?$_Tree_node@U?$pair@$$CBV?$basic_string@DU?$char_traits@D@std@@V?$allocator@D@2@@std@@VEncodedAuthentication@cpr@@@std@@PAX@std@@@2@QAU?$_Tree_node@U?$pair@$$CBV?$basic_string@DU?$char_traits@D@std@@V?$allocator@D@2@@std@@VEncodedAuthentication@cpr@@@std@@PAX@2@I@Z
	?deallocate@?$_Default_allocator_traits@V?$allocator@U?$_Tree_node@U?$pair@$$CBW4AcceptEncodingMethods@cpr@@V?$basic_string@DU?$char_traits@D@std@@V?$allocator@D@2@@std@@@std@@PAX@std@@@std@@@std@@SAXAAV?$allocator@U?$_Tree_node@U?$pair@$$CBW4AcceptEncodingMethods@cpr@@V?$basic_string@DU?$char_traits@D@std@@V?$allocator@D@2@@std@@@std@@PAX@std@@@2@QAU?$_Tree_node@U?$pair@$$CBW4AcceptEncodingMethods@cpr@@V?$basic_string@DU?$char_traits@D@std@@V?$allocator@D@2@@std@@@std@@PAX@2@I@Z
	?deallocate@?$_Default_allocator_traits@V?$allocator@U_Container_proxy@std@@@std@@@std@@SAXAAV?$allocator@U_Container_proxy@std@@@2@QAU_Container_proxy@2@I@Z
	?deallocate@?$allocator@D@std@@QAEXQADI@Z
	?deallocate@?$allocator@PAV?$function@$$A6AXXZ@std@@@std@@QAEXQAPAV?$function@$$A6AXXZ@2@I@Z
	?deallocate@?$allocator@PAV?$shared_ptr@VInterceptor@cpr@@@std@@@std@@QAEXQAPAV?$shared_ptr@VInterceptor@cpr@@@2@I@Z
	?deallocate@?$allocator@U?$_List_node@UThreadData@ThreadPool@cpr@@PAX@std@@@std@@QAEXQAU?$_List_node@UThreadData@ThreadPool@cpr@@PAX@2@I@Z
	?deallocate@?$allocator@U?$_Tree_node@U?$pair@$$CBV?$basic_string@DU?$char_traits@D@std@@V?$allocator@D@2@@std@@V12@@std@@PAX@std@@@std@@QAEXQAU?$_Tree_node@U?$pair@$$CBV?$basic_string@DU?$char_traits@D@std@@V?$allocator@D@2@@std@@V12@@std@@PAX@2@I@Z
	?deallocate@?$allocator@U?$_Tree_node@U?$pair@$$CBV?$basic_string@DU?$char_traits@D@std@@V?$allocator@D@2@@std@@VEncodedAuthentication@cpr@@@std@@PAX@std@@@std@@QAEXQAU?$_Tree_node@U?$pair@$$CBV?$basic_string@DU?$char_traits@D@std@@V?$allocator@D@2@@std@@VEncodedAuthentication@cpr@@@std@@PAX@2@I@Z
	?deallocate@?$allocator@U?$_Tree_node@U?$pair@$$CBW4AcceptEncodingMethods@cpr@@V?$basic_string@DU?$char_traits@D@std@@V?$allocator@D@2@@std@@@std@@PAX@std@@@std@@QAEXQAU?$_Tree_node@U?$pair@$$CBW4AcceptEncodingMethods@cpr@@V?$basic_string@DU?$char_traits@D@std@@V?$allocator@D@2@@std@@@std@@PAX@2@I@Z
	?deallocate@?$allocator@UPair@cpr@@@std@@QAEXQAUPair@cpr@@I@Z
	?deallocate@?$allocator@UParameter@cpr@@@std@@QAEXQAUParameter@cpr@@I@Z
	?deallocate@?$allocator@UPart@cpr@@@std@@QAEXQAUPart@cpr@@I@Z
	?deallocate@?$allocator@Ucurl_forms@@@std@@QAEXQAUcurl_forms@@I@Z
	?deallocate@?$allocator@V?$basic_string@DU?$char_traits@D@std@@V?$allocator@D@2@@std@@@std@@QAEXQAV?$basic_string@DU?$char_traits@D@std@@V?$allocator@D@2@@2@I@Z
	?deallocate@?$allocator@V?$function@$$A6AXXZ@std@@@std@@QAEXQAV?$function@$$A6AXXZ@2@I@Z
	?deallocate@?$allocator@V?$shared_ptr@VInterceptor@cpr@@@std@@@std@@QAEXQAV?$shared_ptr@VInterceptor@cpr@@@2@I@Z
	?deallocate@?$allocator@VCertInfo@cpr@@@std@@QAEXQAVCertInfo@cpr@@I@Z
	?deallocate@?$allocator@VCookie@cpr@@@std@@QAEXQAVCookie@cpr@@I@Z
	?debugUserFunction@util@cpr@@YAHPAXW4curl_infotype@@PADIPBVDebugCallback@2@@Z
	?default_error_condition@error_category@std@@UBE?AVerror_condition@2@H@Z
	?emplace_back@CertInfo@cpr@@QAEXABV?$basic_string@DU?$char_traits@D@std@@V?$allocator@D@2@@std@@@Z
	?emplace_back@Cookies@cpr@@QAEXABVCookie@2@@Z
	?empty@?$basic_string@DU?$char_traits@D@std@@V?$allocator@D@2@@std@@QBE_NXZ
	?empty@?$deque@V?$function@$$A6AXXZ@std@@V?$allocator@V?$function@$$A6AXXZ@std@@@2@@std@@QBE_NXZ
	?empty@?$deque@V?$shared_ptr@VInterceptor@cpr@@@std@@V?$allocator@V?$shared_ptr@VInterceptor@cpr@@@std@@@2@@std@@QBE_NXZ
	?empty@?$queue@V?$function@$$A6AXXZ@std@@V?$deque@V?$function@$$A6AXXZ@std@@V?$allocator@V?$function@$$A6AXXZ@std@@@2@@2@@std@@QBE_NXZ
	?empty@?$queue@V?$shared_ptr@VInterceptor@cpr@@@std@@V?$deque@V?$shared_ptr@VInterceptor@cpr@@@std@@V?$allocator@V?$shared_ptr@VInterceptor@cpr@@@std@@@2@@2@@std@@QBE_NXZ
	?empty@?$vector@V?$basic_string@DU?$char_traits@D@std@@V?$allocator@D@2@@std@@V?$allocator@V?$basic_string@DU?$char_traits@D@std@@V?$allocator@D@2@@std@@@2@@std@@QBE_NXZ
	?empty@AcceptEncoding@cpr@@QBE_NXZ
	?end@?$_Tree@V?$_Tmap_traits@V?$basic_string@DU?$char_traits@D@std@@V?$allocator@D@2@@std@@V12@UCaseInsensitiveCompare@cpr@@V?$allocator@U?$pair@$$CBV?$basic_string@DU?$char_traits@D@std@@V?$allocator@D@2@@std@@V12@@std@@@2@$0A@@std@@@std@@QAE?AV?$_Tree_iterator@V?$_Tree_val@U?$_Tree_simple_types@U?$pair@$$CBV?$basic_string@DU?$char_traits@D@std@@V?$allocator@D@2@@std@@V12@@std@@@std@@@std@@@2@XZ
	?end@?$basic_string@DU?$char_traits@D@std@@V?$allocator@D@2@@std@@QAE?AV?$_String_iterator@V?$_String_val@U?$_Simple_types@D@std@@@std@@@2@XZ
	?end@?$basic_string@DU?$char_traits@D@std@@V?$allocator@D@2@@std@@QBE?AV?$_String_const_iterator@V?$_String_val@U?$_Simple_types@D@std@@@std@@@2@XZ
	?end@?$initializer_list@U?$pair@$$CBV?$basic_string@DU?$char_traits@D@std@@V?$allocator@D@2@@std@@V12@@std@@@std@@QBEPBU?$pair@$$CBV?$basic_string@DU?$char_traits@D@std@@V?$allocator@D@2@@std@@V12@@2@XZ
	?end@?$initializer_list@U?$pair@$$CBW4AcceptEncodingMethods@cpr@@V?$basic_string@DU?$char_traits@D@std@@V?$allocator@D@2@@std@@@std@@@std@@QBEPBU?$pair@$$CBW4AcceptEncodingMethods@cpr@@V?$basic_string@DU?$char_traits@D@std@@V?$allocator@D@2@@std@@@2@XZ
	?end@?$initializer_list@UPair@cpr@@@std@@QBEPBUPair@cpr@@XZ
	?end@?$initializer_list@UParameter@cpr@@@std@@QBEPBUParameter@cpr@@XZ
	?end@?$initializer_list@UPart@cpr@@@std@@QBEPBUPart@cpr@@XZ
	?end@?$initializer_list@V?$basic_string@DU?$char_traits@D@std@@V?$allocator@D@2@@std@@@std@@QBEPBV?$basic_string@DU?$char_traits@D@std@@V?$allocator@D@2@@2@XZ
	?end@?$initializer_list@W4AcceptEncodingMethods@cpr@@@std@@QBEPBW4AcceptEncodingMethods@cpr@@XZ
	?end@?$list@UThreadData@ThreadPool@cpr@@V?$allocator@UThreadData@ThreadPool@cpr@@@std@@@std@@QAE?AV?$_List_iterator@V?$_List_val@U?$_List_simple_types@UThreadData@ThreadPool@cpr@@@std@@@std@@@2@XZ
	?end@?$vector@V?$basic_string@DU?$char_traits@D@std@@V?$allocator@D@2@@std@@V?$allocator@V?$basic_string@DU?$char_traits@D@std@@V?$allocator@D@2@@std@@@2@@std@@QAE?AV?$_Vector_iterator@V?$_Vector_val@U?$_Simple_types@V?$basic_string@DU?$char_traits@D@std@@V?$allocator@D@2@@std@@@std@@@std@@@2@XZ
	?end@?$vector@V?$basic_string@DU?$char_traits@D@std@@V?$allocator@D@2@@std@@V?$allocator@V?$basic_string@DU?$char_traits@D@std@@V?$allocator@D@2@@std@@@2@@std@@QBE?AV?$_Vector_const_iterator@V?$_Vector_val@U?$_Simple_types@V?$basic_string@DU?$char_traits@D@std@@V?$allocator@D@2@@std@@@std@@@std@@@2@XZ
	?end@?$vector@VCookie@cpr@@V?$allocator@VCookie@cpr@@@std@@@std@@QAE?AV?$_Vector_iterator@V?$_Vector_val@U?$_Simple_types@VCookie@cpr@@@std@@@std@@@2@XZ
	?end@?$vector@VCookie@cpr@@V?$allocator@VCookie@cpr@@@std@@@std@@QBE?AV?$_Vector_const_iterator@V?$_Vector_val@U?$_Simple_types@VCookie@cpr@@@std@@@std@@@2@XZ
	?end@CertInfo@cpr@@QAE?AV?$_Vector_iterator@V?$_Vector_val@U?$_Simple_types@V?$basic_string@DU?$char_traits@D@std@@V?$allocator@D@2@@std@@@std@@@std@@@std@@XZ
	?end@CertInfo@cpr@@QBE?AV?$_Vector_const_iterator@V?$_Vector_val@U?$_Simple_types@V?$basic_string@DU?$char_traits@D@std@@V?$allocator@D@2@@std@@@std@@@std@@@std@@XZ
	?end@Cookies@cpr@@QAE?AV?$_Vector_iterator@V?$_Vector_val@U?$_Simple_types@VCookie@cpr@@@std@@@std@@@std@@XZ
	?end@Cookies@cpr@@QBE?AV?$_Vector_const_iterator@V?$_Vector_val@U?$_Simple_types@VCookie@cpr@@@std@@@std@@@std@@XZ
	?eof@?$_Narrow_char_traits@DH@std@@SAHXZ
	?eq@?$_Narrow_char_traits@DH@std@@SA_NABD0@Z
	?eq_int_type@?$_Narrow_char_traits@DH@std@@SA_NABH0@Z
	?equivalent@error_category@std@@UBE_NABVerror_code@2@H@Z
	?equivalent@error_category@std@@UBE_NHABVerror_condition@2@@Z
	?erase@?$basic_string@DU?$char_traits@D@std@@V?$allocator@D@2@@std@@QAEAAV12@I@Z
	?erase@?$basic_string@DU?$char_traits@D@std@@V?$allocator@D@2@@std@@QAEAAV12@II@Z
	?erase@?$list@UThreadData@ThreadPool@cpr@@V?$allocator@UThreadData@ThreadPool@cpr@@@std@@@std@@QAE?AV?$_List_iterator@V?$_List_val@U?$_List_simple_types@UThreadData@ThreadPool@cpr@@@std@@@std@@@2@V?$_List_const_iterator@V?$_List_val@U?$_List_simple_types@UThreadData@ThreadPool@cpr@@@std@@@std@@@2@@Z
	?failed@?$ostreambuf_iterator@DU?$char_traits@D@std@@@std@@QBE_NXZ
	?find@?$_Narrow_char_traits@DH@std@@SAPBDQBDIABD@Z
	?find@?$_Tree@V?$_Tmap_traits@V?$basic_string@DU?$char_traits@D@std@@V?$allocator@D@2@@std@@V12@UCaseInsensitiveCompare@cpr@@V?$allocator@U?$pair@$$CBV?$basic_string@DU?$char_traits@D@std@@V?$allocator@D@2@@std@@V12@@std@@@2@$0A@@std@@@std@@QAE?AV?$_Tree_iterator@V?$_Tree_val@U?$_Tree_simple_types@U?$pair@$$CBV?$basic_string@DU?$char_traits@D@std@@V?$allocator@D@2@@std@@V12@@std@@@std@@@std@@@2@ABV?$basic_string@DU?$char_traits@D@std@@V?$allocator@D@2@@2@@Z
	?find@?$basic_string@DU?$char_traits@D@std@@V?$allocator@D@2@@std@@QBEIDI@Z
	?find_first_not_of@?$basic_string@DU?$char_traits@D@std@@V?$allocator@D@2@@std@@QBEIQBDI@Z
	?find_first_of@?$basic_string@DU?$char_traits@D@std@@V?$allocator@D@2@@std@@QBEIQBDI@Z
	?find_last_not_of@?$basic_string@DU?$char_traits@D@std@@V?$allocator@D@2@@std@@QBEIQBDI@Z
	?from_time_t@system_clock@chrono@std@@SA?AV?$time_point@Usystem_clock@chrono@std@@V?$duration@_JU?$ratio@$00$0JIJGIA@@std@@@23@@23@_J@Z
	?front@?$basic_string@DU?$char_traits@D@std@@V?$allocator@D@2@@std@@QAEAADXZ
	?front@?$basic_string@DU?$char_traits@D@std@@V?$allocator@D@2@@std@@QBEABDXZ
	?front@?$deque@V?$function@$$A6AXXZ@std@@V?$allocator@V?$function@$$A6AXXZ@std@@@2@@std@@QAEAAV?$function@$$A6AXXZ@2@XZ
	?front@?$deque@V?$shared_ptr@VInterceptor@cpr@@@std@@V?$allocator@V?$shared_ptr@VInterceptor@cpr@@@std@@@2@@std@@QAEAAV?$shared_ptr@VInterceptor@cpr@@@2@XZ
	?front@?$queue@V?$function@$$A6AXXZ@std@@V?$deque@V?$function@$$A6AXXZ@std@@V?$allocator@V?$function@$$A6AXXZ@std@@@2@@2@@std@@QAEAAV?$function@$$A6AXXZ@2@XZ
	?front@?$queue@V?$shared_ptr@VInterceptor@cpr@@@std@@V?$deque@V?$shared_ptr@VInterceptor@cpr@@@std@@V?$allocator@V?$shared_ptr@VInterceptor@cpr@@@std@@@2@@2@@std@@QAEAAV?$shared_ptr@VInterceptor@cpr@@@2@XZ
	?future_category@std@@YAABVerror_category@1@XZ
	?get@?$_Ptr_base@UCurlHolder@cpr@@@std@@IBEPAUCurlHolder@cpr@@XZ
	?get@?$_Ptr_base@V?$packaged_task@$$A6A?AVResponse@cpr@@XZ@std@@@std@@IBEPAV?$packaged_task@$$A6A?AVResponse@cpr@@XZ@2@XZ
	?get@?$_Ptr_base@VInterceptor@cpr@@@std@@IBEPAVInterceptor@cpr@@XZ
	?get@?$_Ptr_base@VSession@cpr@@@std@@IBEPAVSession@cpr@@XZ
	?get@?$_Ptr_base@Vthread@std@@@std@@IBEPAVthread@2@XZ
	?getErrorCodeForCurlError@Error@cpr@@CA?AW4ErrorCode@2@H@Z
	?getString@AcceptEncoding@cpr@@QBE?BV?$basic_string@DU?$char_traits@D@std@@V?$allocator@D@2@@std@@XZ
	?get_allocator@?$basic_string@DU?$char_traits@D@std@@V?$allocator@D@2@@std@@QBE?AV?$allocator@D@2@XZ
	?get_future@?$packaged_task@$$A6A?AVResponse@cpr@@XZ@std@@QAE?AV?$future@VResponse@cpr@@@2@XZ
	?get_id@this_thread@std@@YA?AVid@thread@2@XZ
	?get_id@thread@std@@QBE?AVid@12@XZ
	?hardware_concurrency@thread@std@@SAIXZ
	?has@Proxies@cpr@@QBE_NABV?$basic_string@DU?$char_traits@D@std@@V?$allocator@D@2@@std@@@Z
	?has@ProxyAuthentication@cpr@@QBE_NABV?$basic_string@DU?$char_traits@D@std@@V?$allocator@D@2@@std@@@Z
	?headerUserFunction@util@cpr@@YAIPADIIPBVHeaderCallback@2@@Z
	?insert@?$_Tree@V?$_Tmap_traits@V?$basic_string@DU?$char_traits@D@std@@V?$allocator@D@2@@std@@V12@U?$less@V?$basic_string@DU?$char_traits@D@std@@V?$allocator@D@2@@std@@@2@V?$allocator@U?$pair@$$CBV?$basic_string@DU?$char_traits@D@std@@V?$allocator@D@2@@std@@V12@@std@@@2@$0A@@std@@@std@@QAEXV?$initializer_list@U?$pair@$$CBV?$basic_string@DU?$char_traits@D@std@@V?$allocator@D@2@@std@@V12@@std@@@2@@Z
	?insert@?$_Tree@V?$_Tmap_traits@W4AcceptEncodingMethods@cpr@@V?$basic_string@DU?$char_traits@D@std@@V?$allocator@D@2@@std@@U?$less@W4AcceptEncodingMethods@cpr@@@4@V?$allocator@U?$pair@$$CBW4AcceptEncodingMethods@cpr@@V?$basic_string@DU?$char_traits@D@std@@V?$allocator@D@2@@std@@@std@@@4@$0A@@std@@@std@@QAEXV?$initializer_list@U?$pair@$$CBW4AcceptEncodingMethods@cpr@@V?$basic_string@DU?$char_traits@D@std@@V?$allocator@D@2@@std@@@std@@@2@@Z
	?insert@?$basic_string@DU?$char_traits@D@std@@V?$allocator@D@2@@std@@QAEAAV12@IQBD@Z
	?insert@?$basic_string@DU?$char_traits@D@std@@V?$allocator@D@2@@std@@QAEAAV12@IQBDI@Z
	?isTrue@util@cpr@@YA_NABV?$basic_string@DU?$char_traits@D@std@@V?$allocator@D@2@@std@@@Z
	?join@thread@std@@QAEXXZ
	?joinable@thread@std@@QBE_NXZ
	?key_comp@?$_Tree@V?$_Tmap_traits@V?$basic_string@DU?$char_traits@D@std@@V?$allocator@D@2@@std@@V12@UCaseInsensitiveCompare@cpr@@V?$allocator@U?$pair@$$CBV?$basic_string@DU?$char_traits@D@std@@V?$allocator@D@2@@std@@V12@@std@@@2@$0A@@std@@@std@@QBE?AUCaseInsensitiveCompare@cpr@@XZ
	?length@?$_Narrow_char_traits@DH@std@@SAIQBD@Z
	?length@?$basic_string@DU?$char_traits@D@std@@V?$allocator@D@2@@std@@QBEIXZ
	?load@?$_Atomic_storage@I$03@std@@QBEIXZ
	?load@?$_Atomic_storage@W4Status@ThreadPool@cpr@@$03@std@@QBE?AW4Status@ThreadPool@cpr@@XZ
	?lock@_Mutex_base@std@@QAEXXZ
	?makeDownloadRequest@Session@cpr@@AAE?AVResponse@2@XZ
	?makeRequest@Session@cpr@@AAE?AVResponse@2@XZ
	?make_error_code@std@@YA?AVerror_code@1@W4future_errc@1@@Z
	?max@?$numeric_limits@H@std@@SAHXZ
	?max@?$numeric_limits@J@std@@SAJXZ
	?max_size@?$_Default_allocator_traits@V?$allocator@D@std@@@std@@SAIABV?$allocator@D@2@@Z
	?max_size@?$_Default_allocator_traits@V?$allocator@U?$_List_node@UThreadData@ThreadPool@cpr@@PAX@std@@@std@@@std@@SAIABV?$allocator@U?$_List_node@UThreadData@ThreadPool@cpr@@PAX@std@@@2@@Z
	?max_size@?$_Default_allocator_traits@V?$allocator@U?$_Tree_node@U?$pair@$$CBV?$basic_string@DU?$char_traits@D@std@@V?$allocator@D@2@@std@@V12@@std@@PAX@std@@@std@@@std@@SAIABV?$allocator@U?$_Tree_node@U?$pair@$$CBV?$basic_string@DU?$char_traits@D@std@@V?$allocator@D@2@@std@@V12@@std@@PAX@std@@@2@@Z
	?max_size@?$_Default_allocator_traits@V?$allocator@U?$_Tree_node@U?$pair@$$CBV?$basic_string@DU?$char_traits@D@std@@V?$allocator@D@2@@std@@VEncodedAuthentication@cpr@@@std@@PAX@std@@@std@@@std@@SAIABV?$allocator@U?$_Tree_node@U?$pair@$$CBV?$basic_string@DU?$char_traits@D@std@@V?$allocator@D@2@@std@@VEncodedAuthentication@cpr@@@std@@PAX@std@@@2@@Z
	?max_size@?$_Default_allocator_traits@V?$allocator@U?$_Tree_node@U?$pair@$$CBW4AcceptEncodingMethods@cpr@@V?$basic_string@DU?$char_traits@D@std@@V?$allocator@D@2@@std@@@std@@PAX@std@@@std@@@std@@SAIABV?$allocator@U?$_Tree_node@U?$pair@$$CBW4AcceptEncodingMethods@cpr@@V?$basic_string@DU?$char_traits@D@std@@V?$allocator@D@2@@std@@@std@@PAX@std@@@2@@Z
	?max_size@?$_Default_allocator_traits@V?$allocator@UPair@cpr@@@std@@@std@@SAIABV?$allocator@UPair@cpr@@@2@@Z
	?max_size@?$_Default_allocator_traits@V?$allocator@UParameter@cpr@@@std@@@std@@SAIABV?$allocator@UParameter@cpr@@@2@@Z
	?max_size@?$_Default_allocator_traits@V?$allocator@UPart@cpr@@@std@@@std@@SAIABV?$allocator@UPart@cpr@@@2@@Z
	?max_size@?$_Default_allocator_traits@V?$allocator@Ucurl_forms@@@std@@@std@@SAIABV?$allocator@Ucurl_forms@@@2@@Z
	?max_size@?$_Default_allocator_traits@V?$allocator@V?$basic_string@DU?$char_traits@D@std@@V?$allocator@D@2@@std@@@std@@@std@@SAIABV?$allocator@V?$basic_string@DU?$char_traits@D@std@@V?$allocator@D@2@@std@@@2@@Z
	?max_size@?$_Default_allocator_traits@V?$allocator@V?$function@$$A6AXXZ@std@@@std@@@std@@SAIABV?$allocator@V?$function@$$A6AXXZ@std@@@2@@Z
	?max_size@?$_Default_allocator_traits@V?$allocator@V?$shared_ptr@VInterceptor@cpr@@@std@@@std@@@std@@SAIABV?$allocator@V?$shared_ptr@VInterceptor@cpr@@@std@@@2@@Z
	?max_size@?$_Default_allocator_traits@V?$allocator@VCertInfo@cpr@@@std@@@std@@SAIABV?$allocator@VCertInfo@cpr@@@2@@Z
	?max_size@?$_Default_allocator_traits@V?$allocator@VCookie@cpr@@@std@@@std@@SAIABV?$allocator@VCookie@cpr@@@2@@Z
	?max_size@?$_Tree@V?$_Tmap_traits@V?$basic_string@DU?$char_traits@D@std@@V?$allocator@D@2@@std@@V12@U?$less@V?$basic_string@DU?$char_traits@D@std@@V?$allocator@D@2@@std@@@2@V?$allocator@U?$pair@$$CBV?$basic_string@DU?$char_traits@D@std@@V?$allocator@D@2@@std@@V12@@std@@@2@$0A@@std@@@std@@QBEIXZ
	?max_size@?$_Tree@V?$_Tmap_traits@V?$basic_string@DU?$char_traits@D@std@@V?$allocator@D@2@@std@@V12@UCaseInsensitiveCompare@cpr@@V?$allocator@U?$pair@$$CBV?$basic_string@DU?$char_traits@D@std@@V?$allocator@D@2@@std@@V12@@std@@@2@$0A@@std@@@std@@QBEIXZ
	?max_size@?$_Tree@V?$_Tmap_traits@V?$basic_string@DU?$char_traits@D@std@@V?$allocator@D@2@@std@@VEncodedAuthentication@cpr@@U?$less@V?$basic_string@DU?$char_traits@D@std@@V?$allocator@D@2@@std@@@2@V?$allocator@U?$pair@$$CBV?$basic_string@DU?$char_traits@D@std@@V?$allocator@D@2@@std@@VEncodedAuthentication@cpr@@@std@@@2@$0A@@std@@@std@@QBEIXZ
	?max_size@?$_Tree@V?$_Tmap_traits@W4AcceptEncodingMethods@cpr@@V?$basic_string@DU?$char_traits@D@std@@V?$allocator@D@2@@std@@U?$less@W4AcceptEncodingMethods@cpr@@@4@V?$allocator@U?$pair@$$CBW4AcceptEncodingMethods@cpr@@V?$basic_string@DU?$char_traits@D@std@@V?$allocator@D@2@@std@@@std@@@4@$0A@@std@@@std@@QBEIXZ
	?max_size@?$basic_string@DU?$char_traits@D@std@@V?$allocator@D@2@@std@@QBEIXZ
	?max_size@?$deque@V?$function@$$A6AXXZ@std@@V?$allocator@V?$function@$$A6AXXZ@std@@@2@@std@@QBEIXZ
	?max_size@?$deque@V?$shared_ptr@VInterceptor@cpr@@@std@@V?$allocator@V?$shared_ptr@VInterceptor@cpr@@@std@@@2@@std@@QBEIXZ
	?max_size@?$list@UThreadData@ThreadPool@cpr@@V?$allocator@UThreadData@ThreadPool@cpr@@@std@@@std@@QBEIXZ
	?max_size@?$vector@UPair@cpr@@V?$allocator@UPair@cpr@@@std@@@std@@QBEIXZ
	?max_size@?$vector@UParameter@cpr@@V?$allocator@UParameter@cpr@@@std@@@std@@QBEIXZ
	?max_size@?$vector@UPart@cpr@@V?$allocator@UPart@cpr@@@std@@@std@@QBEIXZ
	?max_size@?$vector@Ucurl_forms@@V?$allocator@Ucurl_forms@@@std@@@std@@QBEIXZ
	?max_size@?$vector@V?$basic_string@DU?$char_traits@D@std@@V?$allocator@D@2@@std@@V?$allocator@V?$basic_string@DU?$char_traits@D@std@@V?$allocator@D@2@@std@@@2@@std@@QBEIXZ
	?max_size@?$vector@VCertInfo@cpr@@V?$allocator@VCertInfo@cpr@@@std@@@std@@QBEIXZ
	?max_size@?$vector@VCookie@cpr@@V?$allocator@VCookie@cpr@@@std@@@std@@QBEIXZ
	?message@_Future_error_category2@std@@UBE?AV?$basic_string@DU?$char_traits@D@std@@V?$allocator@D@2@@2@H@Z
	?min@?$numeric_limits@J@std@@SAJXZ
	?move@?$_Char_traits@DH@std@@SAPADQADQBDI@Z
	?mutex@?$unique_lock@Vmutex@std@@@std@@QBEPAV02@XZ
	?name@_Future_error_category2@std@@UBEPBDXZ
	?not_eof@?$_Narrow_char_traits@DH@std@@SAHABH@Z
	?notify_all@condition_variable@std@@QAEXXZ
	?notify_one@condition_variable@std@@QAEXXZ
	?now@steady_clock@chrono@std@@SA?AV?$time_point@Usteady_clock@chrono@std@@V?$duration@_JU?$ratio@$00$0DLJKMKAA@@std@@@23@@23@XZ
	?now@system_clock@chrono@std@@SA?AV?$time_point@Usystem_clock@chrono@std@@V?$duration@_JU?$ratio@$00$0JIJGIA@@std@@@23@@23@XZ
	?overflow@?$basic_stringbuf@DU?$char_traits@D@std@@V?$allocator@D@2@@std@@MAEHH@Z
	?parseCookies@util@cpr@@YA?AVCookies@2@PAUcurl_slist@@@Z
	?parseHeader@util@cpr@@YA?AV?$map@V?$basic_string@DU?$char_traits@D@std@@V?$allocator@D@2@@std@@V12@UCaseInsensitiveCompare@cpr@@V?$allocator@U?$pair@$$CBV?$basic_string@DU?$char_traits@D@std@@V?$allocator@D@2@@std@@V12@@std@@@2@@std@@ABV?$basic_string@DU?$char_traits@D@std@@V?$allocator@D@2@@4@PAV54@1@Z
	?pbackfail@?$basic_stringbuf@DU?$char_traits@D@std@@V?$allocator@D@2@@std@@MAEHH@Z
	?pointer_to@?$pointer_traits@PAD@std@@SAPADAAD@Z
	?pointer_to@?$pointer_traits@PAUThreadData@ThreadPool@cpr@@@std@@SAPAUThreadData@ThreadPool@cpr@@AAU345@@Z
	?pop@?$queue@V?$function@$$A6AXXZ@std@@V?$deque@V?$function@$$A6AXXZ@std@@V?$allocator@V?$function@$$A6AXXZ@std@@@2@@2@@std@@QAEXXZ
	?pop@?$queue@V?$shared_ptr@VInterceptor@cpr@@@std@@V?$deque@V?$shared_ptr@VInterceptor@cpr@@@std@@V?$allocator@V?$shared_ptr@VInterceptor@cpr@@@std@@@2@@2@@std@@QAEXXZ
	?pop_back@?$deque@V?$function@$$A6AXXZ@std@@V?$allocator@V?$function@$$A6AXXZ@std@@@2@@std@@QAEXXZ
	?pop_back@?$deque@V?$shared_ptr@VInterceptor@cpr@@@std@@V?$allocator@V?$shared_ptr@VInterceptor@cpr@@@std@@@2@@std@@QAEXXZ
	?pop_back@?$vector@V?$basic_string@DU?$char_traits@D@std@@V?$allocator@D@2@@std@@V?$allocator@V?$basic_string@DU?$char_traits@D@std@@V?$allocator@D@2@@std@@@2@@std@@QAEXXZ
	?pop_back@?$vector@VCookie@cpr@@V?$allocator@VCookie@cpr@@@std@@@std@@QAEXXZ
	?pop_back@CertInfo@cpr@@QAEXXZ
	?pop_back@Cookies@cpr@@QAEXXZ
	?pop_front@?$deque@V?$function@$$A6AXXZ@std@@V?$allocator@V?$function@$$A6AXXZ@std@@@2@@std@@QAEXXZ
	?pop_front@?$deque@V?$shared_ptr@VInterceptor@cpr@@@std@@V?$allocator@V?$shared_ptr@VInterceptor@cpr@@@std@@@2@@std@@QAEXXZ
	?prepareCommon@Session@cpr@@AAEXXZ
	?proceed@Interceptor@cpr@@KA?AVResponse@2@AAVSession@2@@Z
	?proceed@Interceptor@cpr@@KA?AVResponse@2@AAVSession@2@W4ProceedHttpMethod@12@@Z
	?proceed@Interceptor@cpr@@KA?AVResponse@2@AAVSession@2@W4ProceedHttpMethod@12@AAV?$basic_ofstream@DU?$char_traits@D@std@@@std@@@Z
	?proceed@Interceptor@cpr@@KA?AVResponse@2@AAVSession@2@W4ProceedHttpMethod@12@ABVWriteCallback@2@@Z
	?proceed@Session@cpr@@AAE?AVResponse@2@XZ
	?progressUserFunction@util@cpr@@YAHPBVProgressCallback@2@_J111@Z
	?push@?$queue@V?$shared_ptr@VInterceptor@cpr@@@std@@V?$deque@V?$shared_ptr@VInterceptor@cpr@@@std@@V?$allocator@V?$shared_ptr@VInterceptor@cpr@@@std@@@2@@2@@std@@QAEXABV?$shared_ptr@VInterceptor@cpr@@@2@@Z
	?push_back@?$basic_string@DU?$char_traits@D@std@@V?$allocator@D@2@@std@@QAEXD@Z
	?push_back@?$deque@V?$shared_ptr@VInterceptor@cpr@@@std@@V?$allocator@V?$shared_ptr@VInterceptor@cpr@@@std@@@2@@std@@QAEXABV?$shared_ptr@VInterceptor@cpr@@@2@@Z
	?push_back@?$vector@UPair@cpr@@V?$allocator@UPair@cpr@@@std@@@std@@QAEX$$QAUPair@cpr@@@Z
	?push_back@?$vector@UPair@cpr@@V?$allocator@UPair@cpr@@@std@@@std@@QAEXABUPair@cpr@@@Z
	?push_back@?$vector@UParameter@cpr@@V?$allocator@UParameter@cpr@@@std@@@std@@QAEX$$QAUParameter@cpr@@@Z
	?push_back@?$vector@UParameter@cpr@@V?$allocator@UParameter@cpr@@@std@@@std@@QAEXABUParameter@cpr@@@Z
	?push_back@?$vector@Ucurl_forms@@V?$allocator@Ucurl_forms@@@std@@@std@@QAEX$$QAUcurl_forms@@@Z
	?push_back@?$vector@V?$basic_string@DU?$char_traits@D@std@@V?$allocator@D@2@@std@@V?$allocator@V?$basic_string@DU?$char_traits@D@std@@V?$allocator@D@2@@std@@@2@@std@@QAEX$$QAV?$basic_string@DU?$char_traits@D@std@@V?$allocator@D@2@@2@@Z
	?push_back@?$vector@V?$basic_string@DU?$char_traits@D@std@@V?$allocator@D@2@@std@@V?$allocator@V?$basic_string@DU?$char_traits@D@std@@V?$allocator@D@2@@std@@@2@@std@@QAEXABV?$basic_string@DU?$char_traits@D@std@@V?$allocator@D@2@@2@@Z
	?push_back@?$vector@VCookie@cpr@@V?$allocator@VCookie@cpr@@@std@@@std@@QAEXABVCookie@cpr@@@Z
	?push_back@CertInfo@cpr@@QAEXABV?$basic_string@DU?$char_traits@D@std@@V?$allocator@D@2@@std@@@Z
	?push_back@Cookies@cpr@@QAEXABVCookie@2@@Z
	?readUserFunction@util@cpr@@YAIPADIIPBVReadCallback@2@@Z
	?release@?$unique_lock@Vmutex@std@@@std@@QAEPAVmutex@2@XZ
	?release@?$unique_ptr@V_Facet_base@std@@U?$default_delete@V_Facet_base@std@@@2@@std@@QAEPAV_Facet_base@2@XZ
	?reserve@?$basic_string@DU?$char_traits@D@std@@V?$allocator@D@2@@std@@QAEXI@Z
	?resize@?$basic_string@DU?$char_traits@D@std@@V?$allocator@D@2@@std@@QAEXID@Z
	?rethrow_exception@std@@YAXVexception_ptr@1@@Z
	?secureStringClear@util@cpr@@YAXAAV?$basic_string@DU?$char_traits@D@std@@V?$allocator@D@2@@std@@@Z
	?seekoff@?$basic_stringbuf@DU?$char_traits@D@std@@V?$allocator@D@2@@std@@MAE?AV?$fpos@U_Mbstatet@@@2@_JHH@Z
	?seekpos@?$basic_stringbuf@DU?$char_traits@D@std@@V?$allocator@D@2@@std@@MAE?AV?$fpos@U_Mbstatet@@@2@V32@H@Z
	?select_on_container_copy_construction@?$_Default_allocator_traits@V?$allocator@D@std@@@std@@SA?AV?$allocator@D@2@ABV32@@Z
	?select_on_container_copy_construction@?$_Default_allocator_traits@V?$allocator@V?$basic_string@DU?$char_traits@D@std@@V?$allocator@D@2@@std@@@std@@@std@@SA?AV?$allocator@V?$basic_string@DU?$char_traits@D@std@@V?$allocator@D@2@@std@@@2@ABV32@@Z
	?shared_from_this@?$enable_shared_from_this@VSession@cpr@@@std@@QAE?AV?$shared_ptr@VSession@cpr@@@2@XZ
	?size@?$basic_string@DU?$char_traits@D@std@@V?$allocator@D@2@@std@@QBEIXZ
	?size@?$initializer_list@UPair@cpr@@@std@@QBEIXZ
	?size@?$initializer_list@UParameter@cpr@@@std@@QBEIXZ
	?size@?$initializer_list@UPart@cpr@@@std@@QBEIXZ
	?size@?$initializer_list@V?$basic_string@DU?$char_traits@D@std@@V?$allocator@D@2@@std@@@std@@QBEIXZ
	?size@?$vector@V?$basic_string@DU?$char_traits@D@std@@V?$allocator@D@2@@std@@V?$allocator@V?$basic_string@DU?$char_traits@D@std@@V?$allocator@D@2@@std@@@2@@std@@QBEIXZ
	?split@util@cpr@@YA?AV?$vector@V?$basic_string@DU?$char_traits@D@std@@V?$allocator@D@2@@std@@V?$allocator@V?$basic_string@DU?$char_traits@D@std@@V?$allocator@D@2@@std@@@2@@std@@ABV?$basic_string@DU?$char_traits@D@std@@V?$allocator@D@2@@4@D@Z
	?store@?$_Atomic_storage@I$03@std@@QAEXI@Z
	?store@?$_Atomic_storage@W4Status@ThreadPool@cpr@@$03@std@@QAEXW4Status@ThreadPool@cpr@@@Z
	?stoul@std@@YAKABV?$basic_string@DU?$char_traits@D@std@@V?$allocator@D@2@@1@PAIH@Z
	?str@?$StringHolder@VBody@cpr@@@cpr@@QAEABV?$basic_string@DU?$char_traits@D@std@@V?$allocator@D@2@@std@@XZ
	?str@?$StringHolder@VBody@cpr@@@cpr@@QBEABV?$basic_string@DU?$char_traits@D@std@@V?$allocator@D@2@@std@@XZ
	?str@?$StringHolder@VInterface@cpr@@@cpr@@QBEABV?$basic_string@DU?$char_traits@D@std@@V?$allocator@D@2@@std@@XZ
	?str@?$StringHolder@VUrl@cpr@@@cpr@@QAEABV?$basic_string@DU?$char_traits@D@std@@V?$allocator@D@2@@std@@XZ
	?str@?$basic_stringbuf@DU?$char_traits@D@std@@V?$allocator@D@2@@std@@QBE?AV?$basic_string@DU?$char_traits@D@std@@V?$allocator@D@2@@2@XZ
	?str@?$basic_stringstream@DU?$char_traits@D@std@@V?$allocator@D@2@@std@@QBE?AV?$basic_string@DU?$char_traits@D@std@@V?$allocator@D@2@@2@XZ
	?str@MultiRange@cpr@@QBE?BV?$basic_string@DU?$char_traits@D@std@@V?$allocator@D@2@@std@@XZ
	?str@Range@cpr@@QBE?BV?$basic_string@DU?$char_traits@D@std@@V?$allocator@D@2@@std@@XZ
	?substr@?$basic_string@DU?$char_traits@D@std@@V?$allocator@D@2@@std@@QBE?AV12@II@Z
	?swap@?$function@$$A6AXW4InfoType@DebugCallback@cpr@@V?$basic_string@DU?$char_traits@D@std@@V?$allocator@D@2@@std@@H@Z@std@@QAEXAAV12@@Z
	?swap@?$function@$$A6A_NPADAAIH@Z@std@@QAEXAAV12@@Z
	?swap@?$function@$$A6A_NV?$basic_string@DU?$char_traits@D@std@@V?$allocator@D@2@@std@@H@Z@std@@QAEXAAV12@@Z
	?swap@?$function@$$A6A_N_J000H@Z@std@@QAEXAAV12@@Z
	?swap@?$shared_ptr@UCurlHolder@cpr@@@std@@QAEXAAV12@@Z
	?swap@?$shared_ptr@Vthread@std@@@std@@QAEXAAV12@@Z
	?time_since_epoch@?$time_point@Usteady_clock@chrono@std@@V?$duration@_JU?$ratio@$00$0DLJKMKAA@@std@@@23@@chrono@std@@QBE?AV?$duration@_JU?$ratio@$00$0DLJKMKAA@@std@@@23@XZ
	?time_since_epoch@?$time_point@Usystem_clock@chrono@std@@V?$duration@_JU?$ratio@$00$0JIJGIA@@std@@@23@@chrono@std@@QBE?AV?$duration@_JU?$ratio@$00$0JIJGIA@@std@@@23@XZ
	?to_char_type@?$_Narrow_char_traits@DH@std@@SADABH@Z
	?to_int_type@?$_Narrow_char_traits@DH@std@@SAHABD@Z
	?to_string@std@@YA?AV?$basic_string@DU?$char_traits@D@std@@V?$allocator@D@2@@1@_J@Z
	?to_time_t@system_clock@chrono@std@@SA_JABV?$time_point@Usystem_clock@chrono@std@@V?$duration@_JU?$ratio@$00$0JIJGIA@@std@@@23@@23@@Z
	?underflow@?$basic_stringbuf@DU?$char_traits@D@std@@V?$allocator@D@2@@std@@MAEHXZ
	?unlock@_Mutex_base@std@@QAEXXZ
	?urlDecode@CurlHolder@cpr@@QBE?AV?$basic_string@DU?$char_traits@D@std@@V?$allocator@D@2@@std@@ABV34@@Z
	?urlDecode@util@cpr@@YA?AV?$basic_string@DU?$char_traits@D@std@@V?$allocator@D@2@@std@@ABV34@@Z
	?urlEncode@CurlHolder@cpr@@QBE?AV?$basic_string@DU?$char_traits@D@std@@V?$allocator@D@2@@std@@ABV34@@Z
	?urlEncode@util@cpr@@YA?AV?$basic_string@DU?$char_traits@D@std@@V?$allocator@D@2@@std@@ABV34@@Z
	?valid@?$_State_manager@VResponse@cpr@@@std@@QBE_NXZ
	?value@error_code@std@@QBEHXZ
	?value@error_condition@std@@QBEHXZ
	?wait@condition_variable@std@@QAEXAAV?$unique_lock@Vmutex@std@@@2@@Z
	?wait_until@condition_variable@std@@QAE?AW4cv_status@2@AAV?$unique_lock@Vmutex@std@@@2@PBUxtime@@@Z
	?what@bad_weak_ptr@std@@UBEPBDXZ
	?what@exception@std@@UBEPBDXZ
	?what@future_error@std@@UBEPBDXZ
	?writeFileFunction@util@cpr@@YAIPADIIPAV?$basic_ofstream@DU?$char_traits@D@std@@@std@@@Z
	?writeFunction@util@cpr@@YAIPADIIPAV?$basic_string@DU?$char_traits@D@std@@V?$allocator@D@2@@std@@@Z
	?writeUserFunction@util@cpr@@YAIPADIIPBVWriteCallback@2@@Z
	?yield@this_thread@std@@YAXXZ
	RtlSecureZeroMemory
	wmemcpy
